TMS340 COFF Macro Assembler Version 6.10     Mon Oct 30 16:55:09 2023
 Copyright (c) 1985-1991  Texas Instruments Incorporated 

                                                                     PAGE    1

       1                    
       2                            .file   "bret.asm"
       4                            .width  132
       5                            .option b,d,l,t
       6                            .mnolist
       7                    
       8                    
       9                            .include        "macros.h"
      10                            .include        "jjxm.h"
      11                            .include        "mproc.equ"             ;Mproc equates
      12                            .include        "display.equ"           ;Display proc equates
      13                            .include        "gsp.equ"               ;Gsp asm equates
      14                            .include        "sys.equ"
      15                            .include        "game.equ"
      16                            .include        "plyr.equ"
      17                            .include        "anim.equ"
      18                            .include        "audit.equ"
      19                            .include        "sound.h"
      20                            .include        "ring.equ"
      21                            .include        "lifebar.h"
      22                            .include        "damage.equ"
      23                    
      24                    
      25                    
      26                            .ref    ADD_IF_SILENT,bounce_off_ropes,change_anim1,change_anim1a
      27                            .ref    change_anim2a,check_secret_moves
      28                            .ref    CLIMB_ROPES,climb_turnbuckle,do_taunt,execute_walk
      29                            .ref    get_opp_plyrmode,JUMP_ROPES,PCNT,mode_dead,get_opp_process
      30                            .ref    keep_attached,master_keep_attached,mode_choking
      31                            .ref    mode_inair2,process_ptrs,ck_ignore,mode_puppet
      32                            .ref    DO_REVERSAL,DO_REVERSAL_MESS,can_pin
      33                            .ref    FIND_AND_KILL_ENDLESS,ck_teammate_pin,raisearm_check
      34                            .ref    CHECK_COMBO_GO,drone_change_back,set_raisearm_bit
      35                            .ref    hrt_combo_punch_anim,hrt_combo_kick_anim
      36                            .ref    BLOCK_WOOSH,get_powerp_dtime,round_award
      37                            .ref    blocking_off,std_taunt,std_walk_fast
      38                            .ref    hyper_speed_on
      39                            .ref    in_finish_move
      40                            .ref    p1rounds,p2rounds
      41                            .if NUM_BRET_FINISHES
      42                            .ref    hrt_finish1_move
      43                            .if NUM_BRET_FINISHES > 1
      44                            .ref    hrt_finish2_move
      45                            .endif
      46                            .endif
      47                    
      48                    
      49                            .ref    hrt_3_face_driver2_anim
      50                            .ref    wres_slave_anim,hrt_zip_anim,start_run_anim
      51                    
      52                            .ref    hrt_4_block_anim
      53                    
      54                            .ref    hrt_stand2_anim,hrt_stand8_anim
      55                            .ref    hrt_stand4_anim,hrt_stand6_anim
      56                            .ref    hrt_torso2_anim,hrt_torso8_anim
TMS340 COFF Macro Assembler Version 6.10     Mon Oct 30 16:55:09 2023
 Copyright (c) 1985-1991  Texas Instruments Incorporated 

meters, names, messages, and scores                                  PAGE    2

      57                            .ref    hrt_torso4_anim,hrt_torso6_anim
      58                    
      59                            .ref    hrt_2_to_4_turn_anim,hrt_8_to_6_turn_anim       ;stand
      60                            .ref    hrt_4_to_2_turn_anim,hrt_6_to_8_turn_anim
      61                            .ref    hrt_4_to_6_turn_anim,hrt_6_to_4_turn_anim
      62                            .ref    hrt_2_to_8_turn_anim,hrt_8_to_2_turn_anim
      63                            .ref    hrt_4_to_8_turn_anim,hrt_6_to_2_turn_anim
      64                            .ref    hrt_2_to_6_turn_anim,hrt_8_to_4_turn_anim
      65                    
      66                            .ref    hrt_2_to_4_turn2_anim,hrt_8_to_6_turn2_anim     ;torso
      67                            .ref    hrt_4_to_2_turn2_anim,hrt_6_to_8_turn2_anim
      68                            .ref    hrt_4_to_6_turn2_anim,hrt_6_to_4_turn2_anim
      69                            .ref    hrt_2_to_8_turn2_anim,hrt_8_to_2_turn2_anim
      70                            .ref    hrt_4_to_8_turn2_anim,hrt_6_to_2_turn2_anim
      71                            .ref    hrt_2_to_6_turn2_anim,hrt_8_to_4_turn2_anim
      72                    
      73                            .ref    hrt_walk1_f2_anim,hrt_walk2_f2_anim,hrt_walk4_f2_anim
      74                            .ref    hrt_walk5_f2_anim,hrt_walk6_f2_anim,hrt_walk8_f2_anim
      75                    
      76                            .ref    hrt_walk1_f4_anim,hrt_walk2_f4_anim,hrt_walk4_f4_anim
      77                            .ref    hrt_walk5_f4_anim,hrt_walk6_f4_anim,hrt_walk8_f4_anim
      78                    
      79                            .ref    hrt_run2_anim,hrt_flying_kick_anim
      80                            .ref    hrt_2_punch_anim,hrt_4_punch_anim
      81                            .ref    hrt_2_kick_anim,hrt_4_kick_anim
      82                    
      83                            .ref    hrt_hitonground_anim,hrt_hitonground_facedown_anim
      84                    
      85                            .ref    hrt_2_butt_anim,hrt_4_butt_anim
      86                            .ref    hrt_2_knee_anim,hrt_4_knee_anim
      87                    
      88                            .ref    hrt_2_stomp_anim,hrt_4_stomp_anim
      89                            .ref    hrt_4_jump_kick_anim
      90                            .ref    hrt_4_push_anim
      91                            .ref    hrt_4_grabfling_anim,hrt_hiptoss_anim,hrt_hiptoss2_anim
      92                            .ref    hrt_2_grabfling_anim
      93                            .ref    hrt_faceup_getup_anim,hrt_facedown_getup_anim
      94                            .ref    hrt_heldoh_anim
      95                            .ref    hrt_pogo_anim
      96                            .ref    hrt_2_ground_punch_anim,hrt_4_ground_punch_anim
      97                            .ref    hrt_running_ground_punch_anim
      98                            .ref    hrt_climb_down_anim,hrt_tbukl_leap_anim
      99                            .ref    hrt_climb_up_anim,hrt_hh_2_ddt_anim
     100                            .ref    hrt_running_ddt_anim
     101                            .ref    hrt_2_hair_pickup_anim,hrt_2_pin_anim
     102                            .ref    hrt_3_head_held_stand_anim
     103                            .ref    hrt_4_hair_pickup_anim
     104                            .ref    hrt_3_head_hold2_anim,hrt_4_knee_fall_anim
     105                            .ref    hrt_3_head_hold_anim
     106                            .ref    hrt_4_pin_anim,hrt_fall_back_anim
     107                    
     108                            .ref    hrt_4_uppercut_anim
     109                            .ref    hrt_2_raise_arm_anim,hrt_4_raise_arm_anim
     110                    
     111                            .ref    hrt_2_super_punch2_anim
TMS340 COFF Macro Assembler Version 6.10     Mon Oct 30 16:55:09 2023
 Copyright (c) 1985-1991  Texas Instruments Incorporated 

meters, names, messages, and scores                                  PAGE    3

     112                            .ref    hrt_4_super_punch2_anim
     113                            .ref    hrt_4_super_punch_anim
     114                            .ref    hrt_2_super_kick_anim,hrt_4_super_kick_anim
     115                            .ref    hrt_3_pile_driver_anim,hrt_rake_face_anim
     116                    
     117                            .ref    hrt_knees_to_head_anim,hrt_uppercuts_to_head_anim
     118                            .ref    hrt_roll_uppercut_anim,hrt_4_knee_to_head_anim
     119                            .ref    hrt_2_shooter_anim,hrt_4_shooter_anim
     120                    
     121                    
     122                            .ref    hrt_2_butts_anim,hrt_4_butts_anim
     123                    
     124                            .ref    DAM_MULT,BONUS_MESS
     125                    
     126                    
     127                    
     128                    
     129 00000000           bret_secret_moves
     130 00000000 00000b00'         .long   ytkecharge_ddt
     131 00000020 00001240'         .long   ytkeneck_grab
     132 00000040 00001780'         .long   ytkegrab_fling
     133 00000060 00001e30'         .long   ytkehip_toss
     134 00000080 00001600'         .long   ytkegrab_fling2
     135 000000a0 00001650'         .long   ytkehip_toss2
     136 000000c0 000022d0'         .long   ytkeface_rake
     137 000000e0 000006e0'         .long   ytkejump_kick
     138 00000100 000002c0'         .long   ytkesupercut
     139 00000120 00000000          .long   0
     140                    
     141                    
     142 00000140            SUBR   hrt_smove_table
     143 00000140 00002730'         .long   hrt_charge_flying_kick
     144 00000160 00002dc0'         .long   hrt_charge_face_rake
     145 00000180 000048d0'         .long   hrt_hdhold_pile
     146 000001a0 00005430'         .long   hrt_hdhold_ddt
     147 000001c0 00005de0'         .long   hrt_hdhold_faceslam
     148 000001e0 00006790'         .long   hrt_grab_toss_air
     149 00000200 00003270'         .long   hrt_roll_uppercut
     150 00000220 00003a50'         .long   hrt_hdhold_combo1
     151 00000240 00004190'         .long   hrt_hdhold_combo2
     152 00000260 00000000!         .long   std_walk_fast
     153 00000280 00000000!         .long   std_taunt
     154                    
     155                            .if NUM_BRET_FINISHES
     156                            .long   hrt_finish_move1
     157                            .endif
     158                            .if NUM_BRET_FINISHES > 1
     159                            .long   hrt_finish_move2
     160                            .endif
     161 000002a0 00000000          .long   0
     162                    
     163                    
     164 000002c0           ytkesupercut
     165 000002c0     0010          .word   B_PUNCH,                J_ALL
     166 000002e0     0002          .word   J_DOWN,                 J_REAL_LR
TMS340 COFF Macro Assembler Version 6.10     Mon Oct 30 16:55:09 2023
 Copyright (c) 1985-1991  Texas Instruments Incorporated 

meters, names, messages, and scores                                  PAGE    4

     167 00000300     0002          .word   J_DOWN,                 J_REAL_LR
     168 00000320     8010          .word   8000h | 16              ;max
     169 00000330 00000350'         .long   ytkescrt_cut
     170                    
     171 00000350           ytkescrt_cut
     172 00000350     b5a0          move    *a13(ANIMODE),a0
         00000360     0660  
     173 00000370     1fa0          btst    MODE_UNINT_BIT,a0
     174 00000380     cb00          jrnz    ytkeout
         00000390     011e  
     175                    
     176 000003a0     0d5f          calla   get_opp_plyrmode
         000003b0 00000000! 
     177 000003d0     0b40          cmpi    MODE_ONGROUND,a0
         000003e0     fffb  
     178 000003f0     ca00          jrz     ytkeout
         00000400     0117  
     179 00000410     0b40          cmpi    MODE_DEAD,a0
         00000420     fff6  
     180 00000430     ca00          jrz     ytkeout
         00000440     0113  
     181 00000450     0b40          cmpi    MODE_HEADHELD,a0
         00000460     ffec  
     182 00000470     ca00          jrz     ytkeout
         00000480     010f  
     183 00000490     0b40          cmpi    MODE_ATTACHED,a0
         000004a0     fffc  
     184 000004b0     ca00          jrz     ytkeout
         000004c0     010b  
     185                    
     186 000004d0     09e0          movi    hrt_4_super_punch_anim,a0
         000004e0 00000000! 
     187 00000500     0d5f          calla   change_anim1a
         00000510 00000000! 
     188                    
     189 00000530                   WRSND   W_BRET,PUNCH_T1,PUNCH_T2
     190                    
     191 000006d0     0960          rets
     192                    
     193                    
     194 000006e0           ytkejump_kick
     195 000006e0     0100          .word   B_SKICK,                J_ALL
     196 00000700     0004          .word   J_AWAY,                 J_REAL_LR | J_UP | J_DOWN
     197 00000720     0004          .word   J_AWAY,                 J_REAL_LR | J_UP | J_DOWN
     198 00000740     8020          .word   8000h | 32              ;max
     199 00000750 00000770'         .long   ytkescrt_flykick
     200                    
     201 00000770           ytkescrt_flykick
     202 00000770     b5a0          move    *a13(ANIMODE),a0
         00000780     0660  
     203 00000790     1fa0          btst    MODE_UNINT_BIT,a0
     204 000007a0     cb00          jrnz    ytkeout
         000007b0     00dc  
     205                    
     206 000007c0     0d5f          calla   get_opp_plyrmode
TMS340 COFF Macro Assembler Version 6.10     Mon Oct 30 16:55:09 2023
 Copyright (c) 1985-1991  Texas Instruments Incorporated 

meters, names, messages, and scores                                  PAGE    5

         000007d0 00000000! 
     207 000007f0     0b40          cmpi    MODE_ONGROUND,a0
         00000800     fffb  
     208 00000810     ca00          jrz     ytkeout
         00000820     00d5  
     209 00000830     0b40          cmpi    MODE_DEAD,a0
         00000840     fff6  
     210 00000850     ca00          jrz     ytkeout
         00000860     00d1  
     211 00000870     0b40          cmpi    MODE_HEADHELD,a0
         00000880     ffec  
     212 00000890     ca00          jrz     ytkeout
         000008a0     00cd  
     213 000008b0     0b40          cmpi    MODE_ATTACHED,a0
         000008c0     fffc  
     214 000008d0     ca00          jrz     ytkeout
         000008e0     00c9  
     215                    
     216 000008f0     09e0          movi    hrt_4_jump_kick_anim,a0
         00000900 00000000! 
     217 00000920     0d5f          calla   change_anim1a
         00000930 00000000! 
     218                    
     219 00000950                   WRSND   W_BRET,FLYKICK_T1,FLYKICK_T2
     220                    
     221 00000af0     0960          rets
     222                    
     223 00000b00           ytkecharge_ddt
     224 00000b00     b5a0          move    *a13(BUT_VAL_UP),a0
         00000b10     0bb0  
     225 00000b20     1fa0          btst    PLAYER_SPUNCH_BIT,a0
     226 00000b30     ca0c          jrz     ytkeno_punch
     227                    
     228                    
     229                    
     230 00000b40     b5a0          move    *a13(PLYRNUM),a0
         00000b50     0580  
     231 00000b60     0d5f          calla   get_powerp_dtime
         00000b70 00000000! 
     232 00000b90     0b40          cmpi    100,a0                  ;> min?
         00000ba0     ff9b  
     233 00000bb0     c404          jrlt    ytkeno_punch
     234                    
     235 00000bc0     0d3f          callr   ytkescrt_ddt
         00000bd0     0004  
     236 00000be0     0de0          setc
     237 00000bf0     0960          rets
     238                    
     239 00000c00           ytkeno_punch
     240 00000c00     0320          clrc
     241 00000c10     0960          rets
     242                    
     243                    
     244 00000c20           ytkescrt_ddt
     245                    
TMS340 COFF Macro Assembler Version 6.10     Mon Oct 30 16:55:09 2023
 Copyright (c) 1985-1991  Texas Instruments Incorporated 

meters, names, messages, and scores                                  PAGE    6

     246 00000c20     b5a0          move    *a13(PLYRMODE),a0
         00000c30     05c0  
     247 00000c40     0b40          cmpi    MODE_HEADHELD,a0
         00000c50     ffec  
     248 00000c60     ca00          jrz     ytkeout
         00000c70     0090  
     249 00000c80     0b40          cmpi    MODE_HEADHOLD,a0
         00000c90     ffef  
     250 00000ca0     ca00          jrz     ytkeout
         00000cb0     008c  
     251                    
     252 00000cc0     b5a0          move    *a13(ANIMODE),a0
         00000cd0     0660  
     253 00000ce0     1fa0          btst    MODE_UNINT_BIT,a0
     254 00000cf0     cb00          jrnz    ytkeout
         00000d00     0087  
     255                    
     256 00000d10     0d5f          calla   get_opp_plyrmode
         00000d20 00000000! 
     257                    
     258 00000d40     b5a0          move    *a13(PLYRMODE),a0
         00000d50     05c0  
     259 00000d60     0b40          cmpi    MODE_RUNNING,a0
         00000d70     fffe  
     260 00000d80     ca09          jrz     ytkeleapddt
     261                    
     262 00000d90     b5a0          move    *a13(STICK_VAL_CUR),a0
         00000da0     0bc0  
     263 00000db0     b5a1          move    *a13(NEW_FACING_DIR),a1
         00000dc0     04d0  
     264 00000dd0     0b81          andi    0ch,a1
         00000de0 fffffff3  
     265 00000e00     4801          cmp     a0,a1
     266 00000e10     cb21          jrnz    ytkenorm
     267                    
     268 00000e20           ytkeleapddt
     269 00000e20                   WRSND   W_BRET,FLYKICK_T1,FLYKICK_T2
     270 00000fc0     09e0          movi    hrt_running_ddt_anim,a0
         00000fd0 00000000! 
     271 00000ff0     0d5f          calla   change_anim1a
         00001000 00000000! 
     272 00001020     0960          rets
     273 00001030           ytkenorm
     274 00001030                   WRSND   W_BRET,FLYKICK_T1,FLYKICK_T2
     275 000011d0     09e0          movi    hrt_hh_2_ddt_anim,a0
         000011e0 00000000! 
     276 00001200     0d5f          calla   change_anim1a
         00001210 00000000! 
     277 00001230     0960          rets
     278                    
     279                    
     280 00001240           ytkeneck_grab
     281 00001240     0040          .word   B_SPUNCH,               J_ALL
     282 00001260     0008          .word   J_TOWARD,               J_REAL_LR
     283 00001280     0008          .word   J_TOWARD,               J_REAL_LR
TMS340 COFF Macro Assembler Version 6.10     Mon Oct 30 16:55:09 2023
 Copyright (c) 1985-1991  Texas Instruments Incorporated 

meters, names, messages, and scores                                  PAGE    7

     284 000012a0     8020          .word   8000h | 32              ;max
     285 000012b0 000012d0'         .long   ytkescrt_neck
     286                    
     287 000012d0           ytkescrt_neck
     288 000012d0     b5a0          move    *a13(ANIMODE),a0
         000012e0     0660  
     289 000012f0     1fa0          btst    MODE_UNINT_BIT,a0
     290 00001300     cb27          jrnz    ytkeout
     291                    
     292 00001310     0d5f          calla   get_opp_plyrmode
         00001320 00000000! 
     293 00001340     0b40          cmpi    MODE_ONGROUND,a0
         00001350     fffb  
     294 00001360     ca21          jrz     ytkeout
     295 00001370     0b40          cmpi    MODE_DEAD,a0
         00001380     fff6  
     296 00001390     ca1e          jrz     ytkeout
     297 000013a0     0b40          cmpi    MODE_HEADHELD,a0
         000013b0     ffec  
     298 000013c0     ca1b          jrz     ytkeout
     299                    
     300 000013d0     b7ae          move    *a13(LAST_HEADHOLD),a14,L
         000013e0     0cd0  
     301 000013f0     07a0          move    @PCNT,a0,L
         00001400 00000000! 
     302 00001420     45c0          sub     a14,a0
     303 00001430     0b40          cmpi    2*60,a0
         00001440     ff87  
     304 00001450     c507          jrge    ytkeok2
     305                    
     306                            .ref    hrt_3_fake_hold_anim
     307 00001460     09e0          movi    hrt_3_fake_hold_anim,a0
         00001470 00000000! 
     308 00001490     0d5f          calla   change_anim1a
         000014a0 00000000! 
     309 000014c0     0960          rets
     310                    
     311 000014d0           ytkeok2
     312 000014d0     b5a1          move    *a13(CLOSEST_XDIST),a1
         000014e0     0370  
     313 000014f0     0b41          cmpi    90,a1
         00001500     ffa5  
     314 00001510     c707          jrgt    ytkestd_grab
     315                    
     316 00001520     09e0          movi    hrt_3_head_hold2_anim,a0
         00001530 00000000! 
     317 00001550     0d5f          calla   change_anim1a
         00001560 00000000! 
     318 00001580     0960  ytkeout rets
     319                    
     320 00001590           ytkestd_grab
     321 00001590     09e0          movi    hrt_3_head_hold_anim,a0
         000015a0 00000000! 
     322 000015c0     0d5f          calla   change_anim1a
         000015d0 00000000! 
TMS340 COFF Macro Assembler Version 6.10     Mon Oct 30 16:55:09 2023
 Copyright (c) 1985-1991  Texas Instruments Incorporated 

meters, names, messages, and scores                                  PAGE    8

     323 000015f0     0960          rets
     324                    
     325                    
     326 00001600           ytkegrab_fling2
     327 00001600     0044          .word   B_SPUNCH | J_AWAY,      J_REAL_LR | J_UP | J_DOWN
     328 00001620     800a          .word   8000h | 10              ;max
     329 00001630 000016a0'         .long   ytkescrt_grabfling2
     330                    
     331 00001650           ytkehip_toss2
     332 00001650     0014          .word   B_PUNCH | J_AWAY,       J_REAL_LR | J_UP | J_DOWN
     333 00001670     800a          .word   8000h | 10              ;max
     334 00001680 000016a0'         .long   ytkescrt_grabfling2
     335                    
     336 000016a0           ytkescrt_grabfling2
     337 000016a0     b5a0          move    *a13(ANIMODE),a0
         000016b0     0660  
     338 000016c0     1fa0          btst    MODE_UNINT_BIT,a0
     339 000016d0     cbea          jrnz    ytkeout
     340                    
     341 000016e0     0d5f          calla   get_opp_plyrmode
         000016f0 00000000! 
     342 00001710     0b40          cmpi    MODE_BOUNCING,a0
         00001720     fffa  
     343 00001730     ca1a          jrz     ytkeyes
     344 00001740     0b40          cmpi    MODE_RUNNING,a0
         00001750     fffe  
     345 00001760     ca17          jrz     ytkeyes
     346 00001770     0960          rets
     347                    
     348 00001780           ytkegrab_fling
     349                    
     350 00001780     0040          .word   B_SPUNCH,               J_ALL
     351 000017a0     0004          .word   J_AWAY,         J_REAL_LR
     352 000017c0     0004          .word   J_AWAY,         J_REAL_LR
     353 000017e0     8020          .word   8000h | 32              ;max
     354 000017f0 00001810'         .long   ytkescrt_grabfling
     355                    
     356 00001810           ytkescrt_grabfling
     357                    
     358                    
     359 00001810     b5a0          move    *a13(ANIMODE),a0
         00001820     0660  
     360 00001830     1fa0          btst    MODE_UNINT_BIT,a0
     361 00001840     cbd3          jrnz    ytkeout
     362                    
     363 00001850     0d5f          calla   get_opp_plyrmode
         00001860 00000000! 
     364 00001880     0b40          cmpi    MODE_BOUNCING,a0
         00001890     fffa  
     365 000018a0     ca03          jrz     ytkeyes
     366 000018b0     0b40          cmpi    MODE_RUNNING,a0
         000018c0     fffe  
     367 000018d0     cb21          jrnz    ytkenope
     368 000018e0           ytkeyes
     369 000018e0     09e0          movi    hrt_hiptoss_anim,a0
TMS340 COFF Macro Assembler Version 6.10     Mon Oct 30 16:55:09 2023
 Copyright (c) 1985-1991  Texas Instruments Incorporated 

meters, names, messages, and scores                                  PAGE    9

         000018f0 00000000! 
     370 00001910     0d5f          calla   change_anim1a
         00001920 00000000! 
     371                    
     372 00001940                   WRSND   W_BRET,GRABFLING_T1,PUNCH_T2
     373 00001ae0     0960          rets
     374                    
     375 00001af0           ytkenope
     376 00001af0     0d5f          calla   get_opp_plyrmode
         00001b00 00000000! 
     377 00001b20     0b40          cmpi    MODE_HEADHELD,a0
         00001b30     ffec  
     378 00001b40     caa3          jrz     ytkeout
     379 00001b50     0b40          cmpi    MODE_ONGROUND,a0
         00001b60     fffb  
     380 00001b70     caa0          jrz     ytkeout
     381 00001b80     0b40          cmpi    MODE_DEAD,a0
         00001b90     fff6  
     382 00001ba0     ca9d          jrz     ytkeout
     383                    
     384                    
     385 00001bb0                   FACE24  hrt,grabfling_anim
     386 00001c50     0d5f          calla   change_anim1a
         00001c60 00000000! 
     387                    
     388 00001c80                   WRSND   W_BRET,GRABFLING_T1,PUNCH_T2
     389 00001e20     0960          rets
     390                    
     391 00001e30           ytkehip_toss
     392                    
     393 00001e30     0010          .word   B_PUNCH,                J_ALL
     394 00001e50     0004          .word   J_AWAY,         J_REAL_LR
     395 00001e70     0004          .word   J_AWAY,         J_REAL_LR
     396 00001e90     8020          .word   8000h | 32              ;max
     397 00001ea0 00001ec0'         .long   ytkescrt_hiptoss
     398                    
     399 00001ec0           ytkescrt_hiptoss
     400 00001ec0     b5a0          move    *a13(ANIMODE),a0
         00001ed0     0660  
     401 00001ee0     1fa0          btst    MODE_UNINT_BIT,a0
     402 00001ef0     cb00          jrnz    ytkeout
         00001f00     ff67  
     403                    
     404 00001f10     0d5f          calla   get_opp_plyrmode
         00001f20 00000000! 
     405 00001f40     0b40          cmpi    MODE_ONGROUND,a0
         00001f50     fffb  
     406 00001f60     ca00          jrz     ytkeout
         00001f70     ff60  
     407 00001f80     0b40          cmpi    MODE_DEAD,a0
         00001f90     fff6  
     408 00001fa0     ca00          jrz     ytkeout
         00001fb0     ff5c  
     409 00001fc0     0b40          cmpi    MODE_HEADHELD,a0
         00001fd0     ffec  
TMS340 COFF Macro Assembler Version 6.10     Mon Oct 30 16:55:09 2023
 Copyright (c) 1985-1991  Texas Instruments Incorporated 

meters, names, messages, and scores                                  PAGE   10

     410 00001fe0     ca00          jrz     ytkeout
         00001ff0     ff58  
     411 00002000     0b40          cmpi    MODE_INAIR,a0
         00002010     fffd  
     412 00002020     ca09          jrz     ytkedoit
     413 00002030     0b40          cmpi    MODE_INAIR2,a0
         00002040     ffea  
     414 00002050     ca06          jrz     ytkedoit
     415                    
     416 00002060     b5a0          move    *a13(CLOSEST_DIST),a0
         00002070     0360  
     417 00002080     0b40          cmpi    70h,a0
         00002090     ff8f  
     418 000020a0     c700          jrgt    ytkeout
         000020b0     ff4c  
     419                    
     420 000020c0           ytkedoit
     421 000020c0     09e0          movi    hrt_hiptoss_anim,a0
         000020d0 00000000! 
     422 000020f0     0d5f          calla   change_anim1a
         00002100 00000000! 
     423                    
     424 00002120                   WRSND   W_BRET,HIPTOSS_T1,PUNCH_T2
     425 000022c0     0960          rets
     426                    
     427 000022d0           ytkeface_rake
     428 000022d0     0010          .word   B_PUNCH,                J_ALL
     429 000022f0     0008          .word   J_TOWARD,               J_REAL_LR
     430 00002310     000a          .word   J_DOWN_TOWARD,          J_REAL_LR
     431 00002330     0002          .word   J_DOWN,                 J_REAL_LR
     432 00002350     801e          .word   8000h | 30              ;max
     433 00002360 00002380'         .long   ytkescrt_facerake
     434                    
     435 00002380           ytkescrt_facerake
     436 00002380     b5a0          move    *a13(ANIMODE),a0
         00002390     0660  
     437 000023a0     1fa0          btst    MODE_UNINT_BIT,a0
     438 000023b0     cb00          jrnz    ytkeout
         000023c0     ff1b  
     439                    
     440 000023d0     b5a0          move    *a13(PLYRMODE),a0
         000023e0     05c0  
     441 000023f0     0b40          cmpi    MODE_ONTURNBKL,a0
         00002400     fff9  
     442 00002410     ca00          jrz     ytkeout
         00002420     ff15  
     443                    
     444 00002430     0d5f          calla   get_opp_plyrmode
         00002440 00000000! 
     445 00002460     0b40          cmpi    MODE_ONGROUND,a0
         00002470     fffb  
     446 00002480     ca00          jrz     ytkeout
         00002490     ff0e  
     447 000024a0     0b40          cmpi    MODE_DEAD,a0
         000024b0     fff6  
TMS340 COFF Macro Assembler Version 6.10     Mon Oct 30 16:55:09 2023
 Copyright (c) 1985-1991  Texas Instruments Incorporated 

meters, names, messages, and scores                                  PAGE   11

     448 000024c0     ca00          jrz     ytkeout
         000024d0     ff0a  
     449 000024e0     0b40          cmpi    MODE_HEADHELD,a0
         000024f0     ffec  
     450 00002500     ca00          jrz     ytkeout
         00002510     ff06  
     451                    
     452                    
     453 00002520                   WRSND   W_BRET,UPRCUT_T1,UPRCUT_T2
     454                    
     455 000026c0     09e0          movi    hrt_rake_face_anim,a0
         000026d0 00000000! 
     456 000026f0     0d5f          calla   change_anim1a
         00002700 00000000! 
     457 00002720     0960          rets
     458                    
     459                    
     460              0160  yflaCHARGE_TIME .equ    SM_USRW1        ;
     461                    
     462 00002730           hrt_charge_flying_kick
     463                    
     464 00002730           yflastart_over
     465 00002730     57ce          clr     a14
     466 00002740     b1cd          move    a14,*a13(yflaCHARGE_TIME),W
         00002750     0160  
     467 00002760           yflaloop1
     468 00002760                   SLEEPK  1
     469                    
     470 000027a0     b5ae          move    *a13(yflaCHARGE_TIME),a14,W
         000027b0     0160  
     471 000027c0     102e          inc     a14
     472 000027d0     b1cd          move    a14,*a13(yflaCHARGE_TIME),W
         000027e0     0160  
     473                    
     474 000027f0     b500          move    *a8(BUT_VAL_CUR),a0
         00002800     0b90  
     475 00002810     1f60          btst    PLAYER_SKICK_BIT,a0
     476 00002820     ca01          jrz     yflap1
     477                    
     478 00002830     c0f2          jruc    yflaloop1
     479                    
     480 00002840           yflap1
     481                    
     482 00002840     b5ae          move    *a13(yflaCHARGE_TIME),a14
         00002850     0160  
     483 00002860     0b4e          cmpi    100,a14
         00002870     ff9b  
     484 00002880     c4ea          jrlt    yflastart_over
     485                    
     486 00002890     b500          move    *a8(GETUP_TIME),a0
         000028a0     0460  
     487 000028b0     cbe7          jrnz    yflastart_over
     488 000028c0     b500          move    *a8(PLYRMODE),a0
         000028d0     05c0  
     489 000028e0     0b40          cmpi    MODE_HEADHELD,a0
TMS340 COFF Macro Assembler Version 6.10     Mon Oct 30 16:55:09 2023
 Copyright (c) 1985-1991  Texas Instruments Incorporated 

meters, names, messages, and scores                                  PAGE   12

         000028f0     ffec  
     490 00002900     cae2          jrz     yflastart_over
     491 00002910     0b40          cmpi    MODE_HEADHOLD,a0
         00002920     ffef  
     492 00002930     cadf          jrz     yflastart_over
     493 00002940     0b40          cmpi    MODE_ONGROUND,a0
         00002950     fffb  
     494 00002960     cadc          jrz     yflastart_over
     495 00002970     0b40          cmpi    MODE_DEAD,a0
         00002980     fff6  
     496 00002990     cad9          jrz     yflastart_over
     497                    
     498 000029a0     b500          move    *a8(CLOSEST_NUM),a0
         000029b0     03a0  
     499 000029c0                   X32     a0
     500 000029d0     0b20          addi    process_ptrs,a0
         000029e0 00000000! 
     501 00002a00     8600          move    *a0,a0,L
     502 00002a10     b400          move    *a0(PLYRMODE),a0
         00002a20     05c0  
     503 00002a30     0b40          cmpi    MODE_ONGROUND,a0
         00002a40     fffb  
     504 00002a50     cacd          jrz     yflastart_over
     505 00002a60     0b40          cmpi    MODE_DEAD,a0
         00002a70     fff6  
     506 00002a80     caca          jrz     yflastart_over
     507                    
     508 00002a90     b50e          move    *a8(ANIMODE),a14
         00002aa0     0660  
     509 00002ab0     1fae          btst    MODE_UNINT_BIT,a14
     510 00002ac0     cbc6          jrnz    yflastart_over
     511                    
     512                            .ref    ck_ignore_a8
     513 00002ad0     0d5f          calla   ck_ignore_a8
         00002ae0 00000000! 
     514 00002b00     c8c2          jrc     yflastart_over
     515                    
     516 00002b10     09ee          movi    hrt_flying_kick_anim,a14
         00002b20 00000000! 
     517 00002b40     b3c8          move    a14,*a8(SPECIAL_MOVE_ADDR),L
         00002b50     0930  
     518 00002b60                   WRSND   W_BRET,FLYKICK_T1,FLYKICK_T2
     519                    
     520 00002d00                   SETMODE INAIR
     521                    
     522 00002db0     c097          jruc    yflastart_over
     523                            
     524                    
     525                    
     526              0160  qwbyCHARGE_TIME .equ    SM_USRW1        ;
     527                    
     528 00002dc0           hrt_charge_face_rake
     529                    
     530 00002dc0           qwbystart_over
     531 00002dc0     57ce          clr     a14
TMS340 COFF Macro Assembler Version 6.10     Mon Oct 30 16:55:09 2023
 Copyright (c) 1985-1991  Texas Instruments Incorporated 

meters, names, messages, and scores                                  PAGE   13

     532 00002dd0     b1cd          move    a14,*a13(qwbyCHARGE_TIME),W
         00002de0     0160  
     533 00002df0           qwbyloop1
     534 00002df0                   SLEEPK  1
     535                    
     536 00002e30     b5ae          move    *a13(qwbyCHARGE_TIME),a14,W
         00002e40     0160  
     537 00002e50     102e          inc     a14
     538 00002e60     b1cd          move    a14,*a13(qwbyCHARGE_TIME),W
         00002e70     0160  
     539                    
     540 00002e80     b500          move    *a8(BUT_VAL_CUR),a0
         00002e90     0b90  
     541 00002ea0     1fe0          btst    PLAYER_PUNCH_BIT,a0
     542 00002eb0     ca01          jrz     qwbyp1
     543                    
     544 00002ec0     c0f2          jruc    qwbyloop1
     545                    
     546 00002ed0           qwbyp1
     547                    
     548 00002ed0     b5ae          move    *a13(qwbyCHARGE_TIME),a14
         00002ee0     0160  
     549 00002ef0     0b4e          cmpi    100,a14
         00002f00     ff9b  
     550 00002f10     c4ea          jrlt    qwbystart_over
     551                    
     552 00002f20     b500          move    *a8(GETUP_TIME),a0
         00002f30     0460  
     553 00002f40     cbe7          jrnz    qwbystart_over
     554 00002f50     b500          move    *a8(PLYRMODE),a0
         00002f60     05c0  
     555 00002f70     0b40          cmpi    MODE_HEADHELD,a0
         00002f80     ffec  
     556 00002f90     cae2          jrz     qwbystart_over
     557 00002fa0     0b40          cmpi    MODE_HEADHOLD,a0
         00002fb0     ffef  
     558 00002fc0     cadf          jrz     qwbystart_over
     559 00002fd0     0b40          cmpi    MODE_ONGROUND,a0
         00002fe0     fffb  
     560 00002ff0     cadc          jrz     qwbystart_over
     561 00003000     0b40          cmpi    MODE_DEAD,a0
         00003010     fff6  
     562 00003020     cad9          jrz     qwbystart_over
     563                    
     564 00003030     b50e          move    *a8(ANIMODE),a14
         00003040     0660  
     565 00003050     1fae          btst    MODE_UNINT_BIT,a14
     566 00003060     cbd5          jrnz    qwbystart_over
     567                    
     568 00003070     09ee          movi    hrt_rake_face_anim,a14
         00003080 00000000! 
     569 000030a0     b3c8          move    a14,*a8(SPECIAL_MOVE_ADDR),L
         000030b0     0930  
     570                    
     571 000030c0                   WRSND   W_BRET,UPRCUT_T1,UPRCUT_T2
TMS340 COFF Macro Assembler Version 6.10     Mon Oct 30 16:55:09 2023
 Copyright (c) 1985-1991  Texas Instruments Incorporated 

meters, names, messages, and scores                                  PAGE   14

     572                    
     573 00003260     c0b5          jruc    qwbystart_over
     574                    
     575                            .if NUM_BRET_FINISHES
     576                     SUBRP  hrt_finish_move1
     577                    
     578                    lnkpTIMEOUT     .equ    TSEC
     579                    
     580                    lnkpend_wait
     581                            SLEEP           TSEC/4
     582                            move            @p1rounds,a0                    ; Get player 1 rounds
     583                            move            @p2rounds,a1                    ; Get player 2 rounds
     584                            or              a1,a0                           ; Put em together
     585                            cmpi            2,a0                            ; Anybody got 2?
     586                            jrlt            lnkpend_wait                    ; br = no
     587                    
     588                    lnkpreset
     589                            clr             a11
     590                            move            a11,@in_finish_move
     591                            SLEEPK          1
     592                            WAITSWITCH_DWN  J_UP,0,lnkpreset
     593                            movi            lnkpTIMEOUT,a11
     594                            move            a11,@in_finish_move
     595                            WAITSWITCH_DWN  J_DOWN,0,lnkpreset
     596                            WAITSWITCH_DWN  J_TOWARD,J_DOWN|J_UP,lnkpreset
     597                            WAITSWITCH_DWN  J_TOWARD,J_DOWN|J_UP,lnkpreset
     598                            WAITSWITCH_DWN  B_PUNCH,J_ALL,lnkpreset
     599                    
     600                            movi            hrt_finish1_move,a0
     601                            move            a0,*a8(SPECIAL_MOVE_ADDR),L
     602                            DIE
     603                            .endif
     604                            
     605                    
     606                            .if NUM_BRET_FINISHES > 1
     607                     SUBRP  hrt_finish_move2
     608                    
     609                    xstjTIMEOUT     .equ    TSEC
     610                    
     611                    xstjend_wait
     612                            SLEEP           TSEC/4
     613                            move            @p1rounds,a0                    ; Get player 1 rounds
     614                            move            @p2rounds,a1                    ; Get player 2 rounds
     615                            or              a1,a0                           ; Put em together
     616                            cmpi            2,a0                            ; Anybody got 2?
     617                            jrlt            xstjend_wait                    ; br = no
     618                    
     619                    xstjreset
     620                            clr             a11
     621                            move            a11,@in_finish_move
     622                            SLEEPK          1
     623                            WAITSWITCH_DWN  J_UP,0,xstjreset
     624                            movi            xstjTIMEOUT,a11
     625                            move            a11,@in_finish_move
     626                            WAITSWITCH_DWN  J_UP,0,xstjreset
TMS340 COFF Macro Assembler Version 6.10     Mon Oct 30 16:55:09 2023
 Copyright (c) 1985-1991  Texas Instruments Incorporated 

meters, names, messages, and scores                                  PAGE   15

     627                            WAITSWITCH_DWN  J_RIGHT,J_UP,xstjreset
     628                            WAITSWITCH_DWN  J_RIGHT,J_UP,xstjreset
     629                            WAITSWITCH_DWN  B_SPUNCH,J_ALL,xstjreset
     630                    
     631                            movi            hrt_finish2_move,a0
     632                            move            a0,*a8(SPECIAL_MOVE_ADDR),L
     633                            DIE
     634                            .endif
     635                    
     636                    
     637 00003270            SUBRP  hrt_roll_uppercut
     638                    
     639              0035  cefmTIMEOUT     .equ    TSEC
     640                    
     641 00003270           cefmreset
     642 00003270                   SLEEPK  1
     643                    
     644 000032b0     576b          clr     a11
     645                    
     646 000032c0                   WAITSWITCH_DWN  J_DOWN,         0,              cefmreset
     647                    
     648 00003420     09cb          movi    cefmTIMEOUT,a11
         00003430     0035  
     649                    
     650                    
     651                            ;this should make it nice and lenient...
     652 00003440                   WAITSWITCH_DWN  J_TOWARD,J_UP|J_DOWN,cefmreset
     653 000035a0                   WAITSWITCH_DWN  B_SPUNCH,J_ALL, cefmreset
     654                    
     655 00003700     b500          move    *a8(ANIMODE),a0
         00003710     0660  
     656 00003720     1fa0          btst    MODE_UNINT_BIT,a0
     657 00003730     cbb3          jrnz    cefmreset
     658                    
     659 00003740     b50e          move    *a8(IMMOBILIZE_TIME),a14
         00003750     0ae0  
     660 00003760     cbb0          jrnz    cefmreset                               ;ignore
     661                        
     662 00003770     b500          move    *a8(PLYRMODE),a0
         00003780     05c0  
     663 00003790     0b40          cmpi    MODE_ONTURNBKL,a0
         000037a0     fff9  
     664 000037b0     caab          jreq    cefmreset
     665 000037c0     0b40          cmpi    MODE_HEADHOLD,a0
         000037d0     ffef  
     666 000037e0     caa8          jreq    cefmreset
     667 000037f0     0b40          cmpi    MODE_HEADHELD,a0
         00003800     ffec  
     668 00003810     caa5          jreq    cefmreset
     669                    
     670 00003820                   WRSND   W_BRET,GRABFLING_T1,GRABFLING_T2
     671                    
     672 000039c0     09e0          movi    hrt_roll_uppercut_anim,a0
         000039d0 00000000! 
     673 000039f0     b208          move    a0,*a8(SPECIAL_MOVE_ADDR),L
TMS340 COFF Macro Assembler Version 6.10     Mon Oct 30 16:55:09 2023
 Copyright (c) 1985-1991  Texas Instruments Incorporated 

meters, names, messages, and scores                                  PAGE   16

         00003a00     0930  
     674                    
     675 00003a10     5600          clr     a0
     676 00003a20     b008          move    a0,*a8(RUN_TIME)
         00003a30     07b0  
     677                    
     678                    
     679 00003a40     c082          jruc    cefmreset
     680                    
     681 00003a50           hrt_hdhold_combo1
     682                    
     683              003c  jnxyTIMEOUT     .equ    60
     684                    
     685 00003a50           jnxylp0
     686 00003a50                   SLEEPK  1
     687 00003a90           jnxylp
     688 00003a90     b500          move    *a8(PLYRMODE),a0
         00003aa0     05c0  
     689 00003ab0     0b40          cmpi    MODE_HEADHOLD,a0
         00003ac0     ffef  
     690 00003ad0     cbf7          jrnz    jnxylp0
     691 00003ae0     0d5f          calla   CHECK_COMBO_GO
         00003af0 00000000! 
     692 00003b10     c4f3          jrlt    jnxylp0
     693                    
     694                    
     695 00003b20     576b          clr     a11
     696                    
     697 00003b30                   WAITSWITCH_DWN  J_TOWARD,0,jnxylp
     698                    
     699 00003c90     09cb          movi    jnxyTIMEOUT,a11
         00003ca0     003c  
     700                    
     701 00003cb0                   WAITSWITCH_DWN  J_TOWARD,0,jnxylp
     702 00003e10                   WAITSWITCH_DWN  B_PUNCH,J_ALL,jnxylp
     703                    
     704 00003f70     b500          move    *a8(PLYRMODE),a0
         00003f80     05c0  
     705 00003f90     0b40          cmpi    MODE_HEADHOLD,a0
         00003fa0     ffef  
     706 00003fb0     ca03          jrz     jnxyslam
     707 00003fc0     0b40          cmpi    MODE_HEADHELD,a0
         00003fd0     ffec  
     708 00003fe0     cba6          jrnz    jnxylp0
     709                    
     710                    
     711 00003ff0           jnxyslam
     712 00003ff0     b50e          move    *a8(IMMOBILIZE_TIME),a14
         00004000     0ae0  
     713 00004010     cba3          jrnz    jnxylp0                         ;ignore
     714                    
     715                    
     716                            ;Target WHOIHIT
     717 00004020                   SMRTTGT a8,WHOIHIT
     718                    
TMS340 COFF Macro Assembler Version 6.10     Mon Oct 30 16:55:09 2023
 Copyright (c) 1985-1991  Texas Instruments Incorporated 

meters, names, messages, and scores                                  PAGE   17

     719 000040c0     0d5f          CALLA   FIND_AND_KILL_ENDLESS
         000040d0 00000000! 
     720 000040f0     09ee          movi    hrt_combo_punch_anim,a14
         00004100 00000000! 
     721 00004120     b3c8          move    a14,*a8(SPECIAL_MOVE_ADDR),L
         00004130     0930  
     722                    
     723 00004140                   SLEEPK  20
     724                    
     725 00004180     c090          jruc    jnxylp
     726                    
     727 00004190           hrt_hdhold_combo2
     728                    
     729              003c  gbtgTIMEOUT     .equ    60
     730                    
     731 00004190           gbtglp0
     732 00004190                   SLEEPK  1
     733 000041d0           gbtglp
     734 000041d0     b500          move    *a8(PLYRMODE),a0
         000041e0     05c0  
     735 000041f0     0b40          cmpi    MODE_HEADHOLD,a0
         00004200     ffef  
     736 00004210     cbf7          jrnz    gbtglp0
     737 00004220     0d5f          calla   CHECK_COMBO_GO
         00004230 00000000! 
     738 00004250     c4f3          jrlt    gbtglp0
     739                    
     740 00004260     576b          clr     a11
     741                    
     742 00004270                   WAITSWITCH_DWN  J_TOWARD,0,gbtglp
     743                    
     744 000043d0     09cb          movi    gbtgTIMEOUT,a11
         000043e0     003c  
     745                    
     746 000043f0                   WAITSWITCH_DWN  J_TOWARD,0,gbtglp
     747 00004550                   WAITSWITCH_DWN  B_SKICK,J_DOWN_TOWARD|J_UP_TOWARD,gbtglp
     748                    
     749 000046b0     b500          move    *a8(PLYRMODE),a0
         000046c0     05c0  
     750 000046d0     0b40          cmpi    MODE_HEADHOLD,a0
         000046e0     ffef  
     751 000046f0     ca03          jrz     gbtgslam
     752 00004700     0b40          cmpi    MODE_HEADHELD,a0
         00004710     ffec  
     753 00004720     cba6          jrnz    gbtglp0
     754                    
     755 00004730           gbtgslam
     756 00004730     b50e          move    *a8(IMMOBILIZE_TIME),a14
         00004740     0ae0  
     757 00004750     cba3          jrnz    gbtglp0                         ;ignore
     758                    
     759                    
     760                            ;Target WHOIHIT
     761 00004760                   SMRTTGT a8,WHOIHIT
     762                    
TMS340 COFF Macro Assembler Version 6.10     Mon Oct 30 16:55:09 2023
 Copyright (c) 1985-1991  Texas Instruments Incorporated 

meters, names, messages, and scores                                  PAGE   18

     763 00004800     0d5f          CALLA   FIND_AND_KILL_ENDLESS
         00004810 00000000! 
     764 00004830     09ee          movi    hrt_combo_kick_anim,a14
         00004840 00000000! 
     765 00004860     b3c8          move    a14,*a8(SPECIAL_MOVE_ADDR),L
         00004870     0930  
     766                    
     767 00004880                   SLEEPK  20
     768                    
     769 000048c0     c090          jruc    gbtglp
     770                    
     771                    
     772 000048d0           hrt_hdhold_pile
     773                    
     774              003c  wxmdTIMEOUT     .equ    60
     775                    
     776 000048d0           wxmdlp0
     777 000048d0                   SLEEPK  1
     778 00004910           wxmdlp
     779 00004910     b500          move    *a8(PLYRMODE),a0
         00004920     05c0  
     780 00004930     0b40          cmpi    MODE_HEADHOLD,a0
         00004940     ffef  
     781 00004950     ca03          jrz     wxmdcont
     782 00004960     0b40          cmpi    MODE_HEADHELD,a0
         00004970     ffec  
     783 00004980     cbf4          jrnz    wxmdlp0
     784                    
     785 00004990           wxmdcont
     786 00004990     576b          clr     a11
     787                    
     788 000049a0                   WAITSWITCH_DWN  J_TOWARD,0,wxmdlp
     789                    
     790 00004b00     09cb          movi    wxmdTIMEOUT,a11
         00004b10     003c  
     791                    
     792 00004b20                   WAITSWITCH_DWN  J_TOWARD,0,wxmdlp
     793 00004c80                   WAITSWITCH_DWN  B_SPUNCH,J_ALL,wxmdlp
     794                            
     795 00004de0     b500          move    *a8(PLYRMODE),a0
         00004df0     05c0  
     796 00004e00     0b40          cmpi    MODE_HEADHOLD,a0
         00004e10     ffef  
     797 00004e20     ca1c          jrz     wxmdslam
     798 00004e30     0b40          cmpi    MODE_HEADHELD,a0
         00004e40     ffec  
     799 00004e50     cba7          jrnz    wxmdlp0
     800 00004e60     b50e          move    *a8(I_WILL_DIE),A14
         00004e70     0b30  
     801 00004e80     cba4          jrnz    wxmdlp0
     802                    
     803 00004e90     b50e          move    *a8(IMMOBILIZE_TIME),a14
         00004ea0     0ae0  
     804 00004eb0     cba1          jrnz    wxmdlp0                         ;ignore
     805                    
TMS340 COFF Macro Assembler Version 6.10     Mon Oct 30 16:55:09 2023
 Copyright (c) 1985-1991  Texas Instruments Incorporated 

meters, names, messages, and scores                                  PAGE   19

     806 00004ec0     0d5f          calla   DO_REVERSAL
         00004ed0 00000000! 
     807 00004ef0     0d5f          calla   DO_REVERSAL_MESS
         00004f00 00000000! 
     808                    
     809                            ;target WHOHITME -- don't hit anyone else
     810 00004f20                   SMRTTGT a8,WHOHITME
     811                    
     812                            ;immobilize WHOHITME
     813 00004fc0     b700          move    *a8(WHOHITME),a0,L
         00004fd0     04e0  
     814 00004fe0     c019          jruc    wxmdis_reversal
     815                    
     816 00004ff0           wxmdslam
     817 00004ff0     b50e          move    *a8(IMMOBILIZE_TIME),a14
         00005000     0ae0  
     818 00005010     cb8b          jrnz    wxmdlp0                         ;ignore
     819                    
     820 00005020     09ca          movi    35,A10                  ;Pile driver
         00005030     0023  
     821 00005040                   CREATE  MESSAGE_PID,BONUS_MESS
     822                    
     823                            ;target WHOIHIT -- don't hit anyone else
     824 000050c0                   SMRTTGT a8,WHOIHIT
     825                    
     826                            ;immobilize WHOIHIT
     827 00005160     b700          move    *a8(WHOIHIT),a0,L
         00005170     0500  
     828                    
     829 00005180           wxmdis_reversal
     830 00005180     19ee          movk    15,a14
     831 00005190     b1c0          move    a14,*a0(IMMOBILIZE_TIME)
         000051a0     0ae0  
     832                    
     833 000051b0     0d5f          CALLA   FIND_AND_KILL_ENDLESS
         000051c0 00000000! 
     834                    
     835 000051e0                   WRSND   W_BRET,GRABFLING_T1,GRABFLING_T2
     836                    
     837 00005380     09e0          movi    hrt_3_pile_driver_anim,a0
         00005390 00000000! 
     838 000053b0     b208          move    a0,*a8(SPECIAL_MOVE_ADDR),L
         000053c0     0930  
     839                    
     840 000053d0                   SLEEPK  20
     841                    
     842 00005410     c000          jruc    wxmdlp
         00005420     ff4e  
     843                    
     844 00005430            SUBRP  hrt_hdhold_ddt
     845                    
     846              003c  xtluTIMEOUT     .equ    60
     847                    
     848 00005430           xtlulp0
     849 00005430                   SLEEPK  1
TMS340 COFF Macro Assembler Version 6.10     Mon Oct 30 16:55:09 2023
 Copyright (c) 1985-1991  Texas Instruments Incorporated 

meters, names, messages, and scores                                  PAGE   20

     850 00005470           xtlulp
     851 00005470     b500          move    *a8(PLYRMODE),a0
         00005480     05c0  
     852 00005490     0b40          cmpi    MODE_HEADHOLD,a0
         000054a0     ffef  
     853 000054b0     ca03          jrz     xtlucont
     854 000054c0     0b40          cmpi    MODE_HEADHELD,a0
         000054d0     ffec  
     855 000054e0     cbf4          jrnz    xtlulp0
     856                    
     857 000054f0           xtlucont
     858 000054f0     576b          clr     a11
     859                    
     860 00005500                   WAITSWITCH_DWN  J_DOWN,0,xtlulp
     861                    
     862 00005660     09cb          movi    xtluTIMEOUT,a11
         00005670     003c  
     863                    
     864 00005680                   WAITSWITCH_DWN  J_DOWN,0,xtlulp
     865 000057e0                   WAITSWITCH_DWN  B_SKICK,J_ALL,xtlulp
     866                            
     867 00005940     b500          move    *a8(PLYRMODE),a0
         00005950     05c0  
     868 00005960     0b40          cmpi    MODE_HEADHOLD,a0
         00005970     ffef  
     869 00005980     ca1c          jrz     xtluslam
     870 00005990     0b40          cmpi    MODE_HEADHELD,a0
         000059a0     ffec  
     871 000059b0     cba7          jrnz    xtlulp0
     872 000059c0     b50e          move    *a8(I_WILL_DIE),A14
         000059d0     0b30  
     873 000059e0     cba4          jrnz    xtlulp0
     874                    
     875 000059f0     b50e          move    *a8(IMMOBILIZE_TIME),a14
         00005a00     0ae0  
     876 00005a10     cba1          jrnz    xtlulp0                         ;ignore
     877                    
     878 00005a20     0d5f          calla   DO_REVERSAL
         00005a30 00000000! 
     879 00005a50     0d5f          calla   DO_REVERSAL_MESS
         00005a60 00000000! 
     880                    
     881                            ;target WHOHITME -- don't hit anyone else
     882 00005a80                   SMRTTGT a8,WHOHITME
     883                    
     884                            ;immobilize WHOHITME
     885 00005b20     b700          move    *a8(WHOHITME),a0,L
         00005b30     04e0  
     886 00005b40     c018          jruc    xtluis_reversal
     887                    
     888 00005b50           xtluslam
     889 00005b50     b50e          move    *a8(IMMOBILIZE_TIME),a14
         00005b60     0ae0  
     890 00005b70     cb8b          jrnz    xtlulp0                         ;ignore
     891                    
TMS340 COFF Macro Assembler Version 6.10     Mon Oct 30 16:55:09 2023
 Copyright (c) 1985-1991  Texas Instruments Incorporated 

meters, names, messages, and scores                                  PAGE   21

     892 00005b80     1a0a          movk    16,A10                  ;Pile driver
     893 00005b90                   CREATE  MESSAGE_PID,BONUS_MESS
     894                    
     895                            ;target WHOIHIT -- don't hit anyone else
     896 00005c10                   SMRTTGT a8,WHOIHIT
     897                    
     898                            ;immobilize WHOIHIT
     899 00005cb0     b700          move    *a8(WHOIHIT),a0,L
         00005cc0     0500  
     900                    
     901 00005cd0           xtluis_reversal
     902 00005cd0     19ee          movk    15,a14
     903 00005ce0     b1c0          move    a14,*a0(IMMOBILIZE_TIME)
         00005cf0     0ae0  
     904                    
     905 00005d00     0d5f          CALLA   FIND_AND_KILL_ENDLESS
         00005d10 00000000! 
     906                    
     907 00005d30     09e0          movi    hrt_hh_2_ddt_anim,a0
         00005d40 00000000! 
     908 00005d60     b208          move    a0,*a8(SPECIAL_MOVE_ADDR),L
         00005d70     0930  
     909                    
     910 00005d80                   SLEEPK  20
     911                    
     912 00005dc0     c000          jruc    xtlulp
         00005dd0     ff69  
     913                    
     914 00005de0            SUBRP  hrt_hdhold_faceslam
     915                    
     916              003c  oubeTIMEOUT     .equ    60
     917                    
     918 00005de0           oubelp0
     919 00005de0                   SLEEPK  1
     920 00005e20           oubelp
     921 00005e20     b500          move    *a8(PLYRMODE),a0
         00005e30     05c0  
     922 00005e40     0b40          cmpi    MODE_HEADHOLD,a0
         00005e50     ffef  
     923 00005e60     ca03          jrz     oubecont
     924 00005e70     0b40          cmpi    MODE_HEADHELD,a0
         00005e80     ffec  
     925 00005e90     cbf4          jrnz    oubelp0
     926                    
     927 00005ea0           oubecont
     928 00005ea0     576b          clr     a11
     929                    
     930 00005eb0                   WAITSWITCH_DWN  J_DOWN,0,oubelp
     931                    
     932 00006010     09cb          movi    oubeTIMEOUT,a11
         00006020     003c  
     933                    
     934 00006030                   WAITSWITCH_DWN  J_TOWARD,J_DOWN|J_UP,oubelp
     935 00006190                   WAITSWITCH_DWN  B_PUNCH,J_ALL,oubelp
     936                            
TMS340 COFF Macro Assembler Version 6.10     Mon Oct 30 16:55:09 2023
 Copyright (c) 1985-1991  Texas Instruments Incorporated 

meters, names, messages, and scores                                  PAGE   22

     937                            
     938 000062f0     b500          move    *a8(PLYRMODE),a0
         00006300     05c0  
     939 00006310     0b40          cmpi    MODE_HEADHOLD,a0
         00006320     ffef  
     940 00006330     ca1c          jrz     oubeslam
     941 00006340     0b40          cmpi    MODE_HEADHELD,a0
         00006350     ffec  
     942 00006360     cba7          jrnz    oubelp0
     943 00006370     b50e          move    *a8(I_WILL_DIE),A14
         00006380     0b30  
     944 00006390     cba4          jrnz    oubelp0
     945                    
     946 000063a0     b50e          move    *a8(IMMOBILIZE_TIME),a14
         000063b0     0ae0  
     947 000063c0     cba1          jrnz    oubelp0                         ;ignore
     948                    
     949 000063d0     0d5f          calla   DO_REVERSAL
         000063e0 00000000! 
     950 00006400     0d5f          calla   DO_REVERSAL_MESS
         00006410 00000000! 
     951                    
     952                            ;target WHOHITME -- don't hit anyone else
     953 00006430                   SMRTTGT a8,WHOHITME
     954                    
     955                            ;immobilize WHOHITME
     956 000064d0     b700          move    *a8(WHOHITME),a0,L
         000064e0     04e0  
     957 000064f0     c018          jruc    oubeis_reversal
     958                    
     959 00006500           oubeslam
     960 00006500     b50e          move    *a8(IMMOBILIZE_TIME),a14
         00006510     0ae0  
     961 00006520     cb8b          jrnz    oubelp0                         ;ignore
     962                    
     963 00006530     1a8a          movk    20,A10                  ;Pile driver
     964 00006540                   CREATE  MESSAGE_PID,BONUS_MESS
     965                    
     966                            ;target WHOIHIT -- don't hit anyone else
     967 000065c0                   SMRTTGT a8,WHOIHIT
     968                    
     969                            ;immobilize WHOIHIT
     970 00006660     b700          move    *a8(WHOIHIT),a0,L
         00006670     0500  
     971                    
     972 00006680           oubeis_reversal
     973 00006680     19ee          movk    15,a14
     974 00006690     b1c0          move    a14,*a0(IMMOBILIZE_TIME)
         000066a0     0ae0  
     975                    
     976 000066b0     0d5f          CALLA   FIND_AND_KILL_ENDLESS
         000066c0 00000000! 
     977                    
     978 000066e0     09e0          movi    hrt_3_face_driver2_anim,a0
         000066f0 00000000! 
TMS340 COFF Macro Assembler Version 6.10     Mon Oct 30 16:55:09 2023
 Copyright (c) 1985-1991  Texas Instruments Incorporated 

meters, names, messages, and scores                                  PAGE   23

     979 00006710     b208          move    a0,*a8(SPECIAL_MOVE_ADDR),L
         00006720     0930  
     980                    
     981 00006730                   SLEEPK  20
     982                    
     983 00006770     c000          jruc    oubelp
         00006780     ff69  
     984                    
     985 00006790            SUBRP  hrt_grab_toss_air
     986                    
     987              0028  dkytTIMEOUT     .equ    40
     988                    
     989 00006790           dkytlp0
     990 00006790                   SLEEPK  1
     991 000067d0           dkytlp
     992 000067d0     576b          clr     a11
     993                    
     994 000067e0                   WAITSWITCH_DWN  J_AWAY,0,dkytlp
     995                    
     996 00006940     09cb          movi    dkytTIMEOUT,a11
         00006950     0028  
     997                    
     998 00006960                   WAITSWITCH_DWN  J_AWAY,0,dkytlp
     999 00006ac0                   WAITSWITCH_DWN  B_PUNCH,J_ALL,dkytlp
    1000                    
    1001 00006c20     b500          move    *a8(ANIMODE),a0
         00006c30     0660  
    1002 00006c40     1fa0          btst    MODE_UNINT_BIT,a0
    1003 00006c50     cbb7          jrnz    dkytlp
    1004                    
    1005 00006c60     b500          move    *a8(PLYRMODE),a0
         00006c70     05c0  
    1006 00006c80     0b40          cmpi    MODE_HEADHOLD,a0
         00006c90     ffef  
    1007 00006ca0     caae          jreq    dkytlp0
    1008                    
    1009 00006cb0                   SWAP    a8,a13
    1010 00006ce0     0d5f          calla   get_opp_plyrmode
         00006cf0 00000000! 
    1011 00006d10                   SWAP    a8,a13
    1012 00006d40     0b40          cmpi    MODE_ONGROUND,a0
         00006d50     fffb  
    1013 00006d60     caa6          jrz     dkytlp
    1014 00006d70     0b40          cmpi    MODE_DEAD,a0
         00006d80     fff6  
    1015 00006d90     caa3          jrz     dkytlp
    1016 00006da0     0b40          cmpi    MODE_INAIR,a0
         00006db0     fffd  
    1017 00006dc0     ca39          jrz     dkytdoit2
    1018 00006dd0     0b40          cmpi    MODE_INAIR2,a0
         00006de0     ffea  
    1019 00006df0     ca36          jrz     dkytdoit2
    1020                    
    1021 00006e00     b500          move    *a8(CLOSEST_NUM),a0
         00006e10     03a0  
TMS340 COFF Macro Assembler Version 6.10     Mon Oct 30 16:55:09 2023
 Copyright (c) 1985-1991  Texas Instruments Incorporated 

meters, names, messages, and scores                                  PAGE   24

    1022 00006e20                   X32     a0
    1023 00006e30     0b20          addi    process_ptrs,a0
         00006e40 00000000! 
    1024 00006e60     8600          move    *a0,a0,L
    1025 00006e70     b400          move    *a0(ATTACK_TYPE),a0
         00006e80     05e0  
    1026 00006e90     0b40          cmpi    AT_LEAPING,a0
         00006ea0     ffc6  
    1027 00006eb0     ca2a          jrz     dkytdoit2
    1028                    
    1029 00006ec0     b500          move    *a8(CLOSEST_DIST),a0
         00006ed0     0360  
    1030 00006ee0     0b40          cmpi    70h,a0
         00006ef0     ff8f  
    1031 00006f00     c78c          jrgt    dkytlp
    1032                    
    1033 00006f10     09e0          movi    hrt_hiptoss_anim,a0
         00006f20 00000000! 
    1034 00006f40     b208          move    a0,*a8(SPECIAL_MOVE_ADDR),L
         00006f50     0930  
    1035                    
    1036 00006f60                   WRSND   W_BRET,HIPTOSS_T1,PUNCH_T2
    1037                    
    1038 00007100                   SLEEPK  20
    1039 00007140     c000          jruc    dkytlp
         00007150     ff67  
    1040                    
    1041 00007160     09e0  dkytdoit2       movi    hrt_hiptoss2_anim,a0
         00007170 00000000! 
    1042 00007190     b208          move    a0,*a8(SPECIAL_MOVE_ADDR),L
         000071a0     0930  
    1043                    
    1044 000071b0                   WRSND   W_BRET,HIPTOSS_T1,PUNCH_T2
    1045                    
    1046 00007350                   SLEEPK  20
    1047                    
    1048 00007390     c000          jruc    dkytlp
         000073a0     ff42  
    1049                    
    1050                    
    1051                    
    1052                    
    1053 000073b0            SUBR   bret_ani_init
    1054                    
    1055 000073b0     b5a0          move    *a13(FACING_DIR),a0
         000073c0     04c0  
    1056 000073d0     1f80          btst    PLAYER_RIGHT_BIT,a0
    1057 000073e0     cb18          jrnz    whjjp1
    1058 000073f0     09e0          movi    hrt_stand4_anim,a0
         00007400 00000000! 
    1059 00007420     0d5f          calla   change_anim1a
         00007430 00000000! 
    1060                    
    1061 00007450     09e0          movi    hrt_torso4_anim,a0
         00007460 00000000! 
TMS340 COFF Macro Assembler Version 6.10     Mon Oct 30 16:55:09 2023
 Copyright (c) 1985-1991  Texas Instruments Incorporated 

meters, names, messages, and scores                                  PAGE   25

    1062 00007480     0d5f          calla   change_anim2a
         00007490 00000000! 
    1063                    
    1064 000074b0                   PUSH    a10
    1065 000074c0     4daa          move    a13,a10
    1066 000074d0                   CREATE  TAUNT_PID,do_taunt
    1067 00007550                   PULL    a10
    1068                    
    1069 00007560     0960          rets
    1070                    
    1071 00007570           whjjp1
    1072 00007570     09e0          movi    hrt_stand2_anim,a0
         00007580 00000000! 
    1073 000075a0     0d5f          calla   change_anim1a
         000075b0 00000000! 
    1074                    
    1075 000075d0     09e0          movi    hrt_torso2_anim,a0
         000075e0 00000000! 
    1076 00007600     0d5f          calla   change_anim2a
         00007610 00000000! 
    1077                    
    1078 00007630     0960          rets
    1079                    
    1080                    
    1081                    
    1082 00007640            SUBR   move_bret
    1083                    
    1084                    
    1085 00007640     09eb          movi    bret_secret_moves,a11
         00007650 00000000' 
    1086 00007670     0d5f          calla   check_secret_moves
         00007680 00000000! 
    1087                    
    1088 000076a0     b5a0          move    *a13(PLYRMODE),a0
         000076b0     05c0  
    1089 000076c0     24a0          sll     5,a0                    ;x 32
    1090 000076d0     0b20          addi    lpfemode_table,a0
         000076e0 00007730' 
    1091 00007700     8600          move    *a0,a0,L
    1092 00007710     0920          call    a0
    1093 00007720     0960          rets
    1094                    
    1095 00007730           lpfemode_table
    1096 00007730 00007a70'         .long   mode_normal             ;0
    1097 00007750 0000f340'         .long   mode_running            ;1
    1098 00007770 000112c0'         .long   mode_inair              ;2
    1099 00007790 000112d0'         .long   mode_attached           ;3
    1100 000077b0 00011440'         .long   mode_onground           ;4
    1101 000077d0 00011450'         .long   mode_bouncing           ;5
    1102 000077f0 000116f0'         .long   mode_onturnbkl          ;6
    1103 00007810 00012090'         .long   mode_block              ;7
    1104 00007830 00012b10'         .long   mode_dizzy              ;8
    1105 00007850 00000000!         .long   mode_dead               ;9
    1106 00007870 00012b20'         .long   mode_oppoverhead        ;10
    1107 00007890 00012b30'         .long   mode_climbturnbkl       ;11
TMS340 COFF Macro Assembler Version 6.10     Mon Oct 30 16:55:09 2023
 Copyright (c) 1985-1991  Texas Instruments Incorporated 

meters, names, messages, and scores                                  PAGE   26

    1108 000078b0 00012b40'         .long   mode_waitanim           ;12
    1109 000078d0 00012bc0'         .long   mode_grapple            ;13
    1110 000078f0 00012bd0'         .long   mode_master             ;14
    1111 00007910 00012c10'         .long   mode_slave              ;15
    1112 00007930 00012c20'         .long   mode_headhold           ;16
    1113 00007950 00013ef0'         .long   mode_puppet2            ;17
    1114 00007970 00007a70'         .long   mode_normal             ;18
    1115 00007990 00013f00'         .long   mode_headheld           ;19
    1116 000079b0 00000000!         .long   mode_puppet             ;20
    1117 000079d0 00000000!         .long   mode_inair2             ;21
    1118 000079f0 00007a70'         .long   mode_normal             ;22
    1119 00007a10 00007a70'         .long   mode_normal             ;23
    1120 00007a30 000143c0'         .long   mode_chokehold          ;24
    1121 00007a50 00000000!         .long   mode_choking            ;25
    1122                    
    1123                    
    1124 00007a70           mode_normal
    1125                    
    1126 00007a70     b5a0          move    *a13(ANIMODE),a0
         00007a80     0660  
    1127 00007a90     1fa0          btst    MODE_UNINT_BIT,a0
    1128 00007aa0     cb00          jrnz    limpno_interrupt
         00007ab0     00b0  
    1129                    
    1130 00007ac0     b5a0          move    *a13(I_WILL_DIE),a0
         00007ad0     0b30  
    1131 00007ae0     ca1f          jrz     limpnope
    1132 00007af0     b5a0          move    *a13(IMMOBILIZE_TIME),a0
         00007b00     0ae0  
    1133 00007b10     cb1c          jrnz    limpnope
    1134 00007b20     09e0          movi    hrt_fall_back_anim,a0
         00007b30 00000000! 
    1135 00007b50     0d5f          calla   change_anim1a
         00007b60 00000000! 
    1136                    
    1137 00007b80     09c0          movi    -10,a0
         00007b90     fff6  
    1138 00007ba0     b5a1          move    *a13(PLYRNUM),a1
         00007bb0     0580  
    1139 00007bc0     0d5f          calla   adjust_health
         00007bd0 00000000! 
    1140                    
    1141 00007bf0                   SETMODE DEAD
    1142                    
    1143 00007ca0     5600          clr     a0
    1144 00007cb0     b00d          move    a0,*a13(I_WILL_DIE)
         00007cc0     0b30  
    1145                    
    1146 00007cd0     0960          rets
    1147                    
    1148 00007ce0           limpnope
    1149 00007ce0     0d5f          calla   get_opp_plyrmode
         00007cf0 00000000! 
    1150 00007d10     0b40          cmpi    MODE_DEAD,a0
         00007d20     fff6  
TMS340 COFF Macro Assembler Version 6.10     Mon Oct 30 16:55:09 2023
 Copyright (c) 1985-1991  Texas Instruments Incorporated 

meters, names, messages, and scores                                  PAGE   27

    1151 00007d30     cb49          jrne    limpopp_not_dead
    1152                    
    1153                            ;if closest is a zombie, skip pin section.
    1154 00007d40     0d5f          calla   get_opp_process
         00007d50 00000000! 
    1155 00007d70     b40e          move    *a0(STATUS_FLAGS),a14
         00007d80     0b50  
    1156 00007d90     1f8e          btst    B_ZOMBIE,a14
    1157 00007da0     cb42          jrnz    limpopp_not_dead
    1158                            
    1159                            ;all opponents are dead.  Check for pins/raisearms
    1160                    
    1161                            ;if we're attached to someone, don't interrupt it.
    1162 00007db0     b7a1          move    *a13(ATTACH_PROC),a1,L
         00007dc0     03e0  
    1163 00007dd0     ca04          jrz     limpno_attch
    1164 00007de0     b622          move    *a1(ATTACH_PROC),a2,L
         00007df0     03e0  
    1165 00007e00     484d          cmp     a2,a13
    1166 00007e10     ca3b          jreq    limpno_pin_yet
    1167 00007e20           limpno_attch
    1168                    
    1169                            ;if a teammate has pinned, raise yer arm.
    1170 00007e20     0d5f          calla   ck_teammate_pin 
         00007e30 00000000! 
    1171 00007e50     c823          jrc     limpraisearm
    1172                    
    1173                            ;nobody has pinned.  if we're outside or all our opponents are
    1174                            ; outside, do a raisearm.
    1175 00007e60     0d5f          calla   raisearm_check
         00007e70 00000000! 
    1176 00007e90     c81f          jrc     limpraisearm
    1177                    
    1178                            ;we're inside with a pinnable opponent.  any button pins.
    1179 00007ea0     b5a0          move    *a13(BUT_VAL_CUR),a0
         00007eb0     0b90  
    1180 00007ec0     ca30          jrz     limpno_pin_yet
    1181                    
    1182                            ;we have a press -- make sure opponent is on the ground
    1183 00007ed0     0d5f          calla   can_pin
         00007ee0 00000000! 
    1184 00007f00     c92c          jrnc    limpopp_notgnd
    1185                    
    1186                            ;opponent is on the ground.  pin him.
    1187 00007f10                   FACE24  hrt,pin_anim
    1188 00007fb0     0d5f          calla   change_anim1a
         00007fc0 00000000! 
    1189                    
    1190                            ;set the 'I did a pin' flag.
    1191 00007fe0     b5ae          move    *a13(STATUS_FLAGS),a14
         00007ff0     0b50  
    1192 00008000     0bae          ori     M_DID_PIN,a14
         00008010 00000002  
    1193 00008030     b1cd          move    a14,*a13(STATUS_FLAGS)
         00008040     0b50  
TMS340 COFF Macro Assembler Version 6.10     Mon Oct 30 16:55:09 2023
 Copyright (c) 1985-1991  Texas Instruments Incorporated 

meters, names, messages, and scores                                  PAGE   28

    1194                    
    1195                            ;if we're a temp drone for auto-pin purposes, turn back into
    1196                            ; a normal player here.
    1197 00008050     0d5f          calla   drone_change_back
         00008060 00000000! 
    1198                    
    1199 00008080     0960          rets
    1200                    
    1201 00008090           limpraisearm
    1202 00008090                   FACE24  hrt,raise_arm_anim
    1203 00008130     0d5f          calla   change_anim1a
         00008140 00000000! 
    1204 00008160     0d5f          calla   set_raisearm_bit
         00008170 00000000! 
    1205                    
    1206                            ;if we're a temp drone for auto-pin purposes, turn back into
    1207                            ; a normal player here.
    1208 00008190     0d5f          calla   drone_change_back
         000081a0 00000000! 
    1209                    
    1210 000081c0     0960          rets
    1211                    
    1212 000081d0           limptoo_far_to_pin
    1213 000081d0           limpopp_notgnd
    1214 000081d0           limpopp_not_dead
    1215 000081d0           limpno_pin_yet
    1216                    
    1217 000081d0     b5a0          move    *a13(IMMOBILIZE_TIME),a0
         000081e0     0ae0  
    1218 000081f0     cb36          jrnz    limpimmobilized
    1219                    
    1220 00008200     b5a0          move    *a13(BUT_VAL_CUR),a0
         00008210     0b90  
    1221 00008220     1fc0          btst    PLAYER_BLOCK_BIT,a0     ;maybe have to action tables?
    1222 00008230     ca07          jrz     limpnblk                        ;1 for down transitions
    1223 00008240     0d3f          callr   limpblock                       ;& 1 for current buttons
         00008250     01ee  
    1224 00008260     c804          jrc     limpnblk
    1225 00008270     5600          clr     a0
    1226 00008280     b00d          move    a0,*a13(ATTACK_TYPE)
         00008290     05e0  
    1227 000082a0     0960          rets
    1228 000082b0           limpnblk
    1229 000082b0     b5a0          move    *a13(BUT_VAL_CUR),a0
         000082c0     0b90  
    1230 000082d0     0b80          andi    011111b,a0
         000082e0 ffffffe0  
    1231 00008300     0b40          cmpi    PLAYER_PUNCH_VAL|PLAYER_KICK_VAL,a0
         00008310     fff6  
    1232 00008320     ca00          jrz     limppunchkick
         00008330     05ab  
    1233                    
    1234 00008340     b5a0          move    *a13(BUT_VAL_DOWN),a0
         00008350     0ba0  
    1235 00008360     0b80          andi    011111b,a0
TMS340 COFF Macro Assembler Version 6.10     Mon Oct 30 16:55:09 2023
 Copyright (c) 1985-1991  Texas Instruments Incorporated 

meters, names, messages, and scores                                  PAGE   29

         00008370 ffffffe0  
    1236 00008390                   X32     a0
    1237 000083a0     0b20          addi    limpaction_table,a0
         000083b0 000085d0' 
    1238 000083d0     8600          move    *a0,a0,L
    1239 000083e0     0920          call    a0
    1240                    
    1241 000083f0     b5a0          move    *a13(ANIMODE),a0
         00008400     0660  
    1242 00008410     1fa0          btst    MODE_UNINT_BIT,a0
    1243 00008420     cb19          jrnz    limpno_interrupt
    1244                    
    1245                    
    1246 00008430     b5a0          move    *a13(STICK_VAL_CUR),a0
         00008440     0bc0  
    1247 00008450     b00d          move    a0,*a13(MOVE_DIR)
         00008460     04b0  
    1248 00008470     0d5f          calla   climb_turnbuckle
         00008480 00000000! 
    1249 000084a0     c90e          jrnc    limpno_climb
    1250 000084b0     b5a5          move    *a13(WRESTLERNUM),A5
         000084c0     0590  
    1251 000084d0     09e2          MOVI    CLIMB_ROPES,A2
         000084e0 00000000! 
    1252 00008500     09c0          MOVI    1000,A0
         00008510     03e8  
    1253 00008520     0d5f          CALLA   ADD_IF_SILENT
         00008530 00000000! 
    1254 00008550     0960          rets
    1255                    
    1256 00008560           limpimmobilized
    1257 00008560     57ce          clr     a14
    1258 00008570     b1cd          move    a14,*a13(MOVE_DIR)
         00008580     04b0  
    1259 00008590           limpno_climb
    1260 00008590     0d5f          calla   execute_walk
         000085a0 00000000! 
    1261                    
    1262 000085c0           limpno_interrupt
    1263 000085c0     0960          rets
    1264                    
    1265 000085d0           limpaction_table
    1266 000085d0 000089d0'         .long   limpz,limppunch,limpblock,limpblock                     ;0-3
    1267 00008650 0000a320'         .long   limpsuper_punch,limpsuper_punch,limpblock,limpblock     ;4-7
    1268 000086d0 0000c4f0'         .long   limpkick,limppunchkick,limpblock,limpblock              ;8-11
    1269 00008750 0000a320'         .long   limpsuper_punch,limppunchkick,limpblock,limpblock       ;12-15
    1270 000087d0 0000de60'         .long   limpsuper_kick,limpsuper_kick,limpblock,limpblock       ;16-19
    1271 00008850 0000ee10'         .long   limpgraboh,limpgraboh,limpblock,limpblock               ;20-23
    1272 000088d0 0000de60'         .long   limpsuper_kick,limppunchkick,limpblock,limpblock        ;24-27
    1273 00008950 0000ee10'         .long   limpgraboh,limpgraboh,limpblock,limpblock               ;28-31
    1274                    
    1275 000089d0           limpz           ;0
    1276                    
    1277 000089d0     0960          rets
    1278                    
TMS340 COFF Macro Assembler Version 6.10     Mon Oct 30 16:55:09 2023
 Copyright (c) 1985-1991  Texas Instruments Incorporated 

meters, names, messages, and scores                                  PAGE   30

    1279                    
    1280 000089e0           limppunch               ;1
    1281 000089e0                   JJXM_INIT
    1282 00008a50                   JJXM    NORMAL,          50, 45,limppunch_hdbutt,limppunch_punch        ;0
    1283 00008b20                   JJXM    RUNNING,         50, 45,limppunch_hdbutt,limppunch_punch        ;1
    1284 00008bf0                   JJXM    INAIR,           50, 45,limppunch_hdbutt,limppunch_punch        ;2
    1285 00008cc0                   JJXM    ATTACHED,        50, 45,limppunch_hdbutt,limppunch_punch        ;3
    1286 00008d90                   JJXM    ONGROUND,       160,140,limppunch_lbowdrop,limppunch_punch      ;4
    1287 00008e60                   JJXM    BOUNCING,        50, 45,limppunch_hdbutt,limppunch_punch        ;1
    1288 00008f30                   JJXM    ONTURNBKL,       50, 45,limppunch_hdbutt,limppunch_punch        ;6
    1289 00009000                   JJXM    BLOCK,           50, 45,limppunch_hdbutt,limppunch_punch        ;7
    1290 000090d0                   JJXM    DIZZY,           50, 45,limppunch_hdbutt,limppunch_punch        ;8
    1291 000091a0                   JJXM    DEAD,           160,140,limppunch_lbowdrop,limppunch_punch      ;9
    1292 00009250                   JJXM    OPPOVERHEAD,     50, 45,limppunch_hdbutt,limppunch_punch        ;10
    1293 00009300                   JJXM    CLIMBTURNBKL,           limppunch_punch                 ;11
    1294 00009340                   JJXM    WAITANIM,        50, 45,limppunch_hdbutt,limppunch_punch        ;12
    1295 000093f0                   JJXM    GRAPPLE,         50, 45,limppunch_hdbutt,limppunch_punch        ;13
    1296 00009490                   JJXM    MASTER,          50, 45,limppunch_hdbutt,limppunch_punch        ;14
    1297 00009530                   JJXM    SLAVE,           50, 45,limppunch_hdbutt,limppunch_punch        ;15
    1298 000095d0                   JJXM    HEADHOLD,        50, 45,limppunch_hdbutt,limppunch_punch        ;16
    1299 00009670                   JJXM    HEADHELD,        50, 45,limppunch_hdbutt,limppunch_punch        ;19
    1300 00009710                   JJXM    CHOKEHOLD,       50, 45,limppunch_hdbutt,limppunch_punch        ;16
    1301 000097b0                   JJXM    PUPPET,          50, 45,limppunch_hdbutt,limppunch_punch        ;20
    1302 00009850                   JJXM    PUPPET2,         50, 45,limppunch_hdbutt,limppunch_punch        ;20
    1303 000098f0                   JJXM    INAIR2,          50, 45,limppunch_hdbutt,limppunch_punch        ;21
    1304 00009990                   JJXM_END
    1305                    
    1306 000099b0           limppunch_rets
    1307 000099b0     0960          rets
    1308                    
    1309 000099c0           limppunch_punch
    1310 000099c0           std_punch
    1311                    
    1312 000099c0                   FACE24  hrt,punch_anim
    1313 00009a60     0d5f          calla   change_anim1a
         00009a70 00000000! 
    1314                    
    1315 00009a90                   WRSND   W_BRET,PUNCH_T1,PUNCH_T2
    1316 00009c30     0960          rets
    1317                    
    1318 00009c40           limppunch_hdbutt
    1319                    
    1320 00009c40                   FACE24  hrt,butt_anim
    1321 00009ce0     0d5f          calla   change_anim1a
         00009cf0 00000000! 
    1322                    
    1323 00009d10                   WRSND   W_BRET,HDBUTT_T1,HDBUTT_T2
    1324 00009eb0     0960          rets
    1325                    
    1326 00009ec0           limppunch_lbowdrop
    1327                    
    1328 00009ec0                   FACE24  hrt,ground_punch_anim
    1329 00009f60     0d5f          calla   change_anim1a
         00009f70 00000000! 
    1330                    
TMS340 COFF Macro Assembler Version 6.10     Mon Oct 30 16:55:09 2023
 Copyright (c) 1985-1991  Texas Instruments Incorporated 

meters, names, messages, and scores                                  PAGE   31

    1331 00009f90                   WRSND   W_BRET,LBOWDROP_T1,LBOWDROP_T2
    1332 0000a130     0960          rets
    1333                    
    1334                    
    1335 0000a140           limpblock               ;2
    1336 0000a140           std_block
    1337                    
    1338 0000a140     05a0          move    @blocking_off,a0
         0000a150 00000000! 
    1339 0000a170     cb18          jrnz    limpno_blocking
    1340                    
    1341 0000a180                   RND_AWARD       a13,BLOCKS_AWD
    1342                    
    1343 0000a220     09e0          movi    hrt_4_block_anim,a0
         0000a230 00000000! 
    1344 0000a250     0d5f          calla   change_anim1
         0000a260 00000000! 
    1345                    
    1346 0000a280     0d5f          calla   BLOCK_WOOSH
         0000a290 00000000! 
    1347                    
    1348 0000a2b0     5600          clr     a0
    1349 0000a2c0     b00d          move    a0,*a13(BLOCK_TIME)
         0000a2d0     0d30  
    1350 0000a2e0     0320          clrc
    1351 0000a2f0     0960          rets
    1352                    
    1353 0000a300           limpno_blocking
    1354 0000a300     0de0          setc
    1355 0000a310     0960          rets
    1356                    
    1357                    
    1358 0000a320           limpsuper_punch ;4
    1359 0000a320                   JJXM_INIT
    1360 0000a390                   JJXM    NORMAL,          70, 45,limpspunch_special,limpspunch_slap      ;0
    1361 0000a460                   JJXM    RUNNING,         70, 45,limpspunch_special,limpspunch_slap      ;1
    1362 0000a530                   JJXM    INAIR,           70, 45,limpspunch_special,limpspunch_slap      ;2
    1363 0000a600                   JJXM    ATTACHED,        70, 45,limpspunch_special,limpspunch_slap      ;3
    1364 0000a6d0                   JJXM    ONGROUND,       160,140,limpspunch_lbowdrop,std_punch   ;4
    1365 0000a7a0                   JJXM    BOUNCING,        70, 45,limpspunch_special,limpspunch_slap      ;1
    1366 0000a870                   JJXM    ONTURNBKL,              limpspunch_slap                 ;6
    1367 0000a8c0                   JJXM    BLOCK,           70, 45,limpspunch_special,limpspunch_slap      ;7
    1368 0000a990                   JJXM    DIZZY,           70, 45,limpspunch_special,limpspunch_slap      ;8
    1369 0000aa60                   JJXM    DEAD,           160,140,limpspunch_lbowdrop,std_punch   ;9
    1370 0000ab30                   JJXM    OPPOVERHEAD,     70, 45,limpspunch_special,limpspunch_slap      ;10
    1371 0000abf0                   JJXM    CLIMBTURNBKL,           std_punch                       ;11
    1372 0000ac40                   JJXM    WAITANIM,        70, 45,limpspunch_special,limpspunch_slap      ;12
    1373 0000ad00                   JJXM    GRAPPLE,         70, 45,limpspunch_special,limpspunch_slap      ;13
    1374 0000adc0                   JJXM    MASTER,          70, 45,limpspunch_special,limpspunch_slap      ;14
    1375 0000ae80                   JJXM    SLAVE,           70, 45,limpspunch_special,limpspunch_slap      ;15
    1376 0000af40                   JJXM    HEADHOLD,        70, 45,limpspunch_special,limpspunch_slap      ;16
    1377 0000b000                   JJXM    HEADHELD,               limpz   ;do_pile                ;19
    1378 0000b050                   JJXM    CHOKEHOLD,       70, 45,limpspunch_special,limpspunch_slap      ;16
    1379 0000b110                   JJXM    PUPPET,          70, 45,limpspunch_special,limpspunch_slap      ;20
    1380 0000b1d0                   JJXM    PUPPET2,         70, 45,limpspunch_special,limpspunch_slap      ;20
TMS340 COFF Macro Assembler Version 6.10     Mon Oct 30 16:55:09 2023
 Copyright (c) 1985-1991  Texas Instruments Incorporated 

meters, names, messages, and scores                                  PAGE   32

    1381 0000b290                   JJXM    INAIR2,          70, 45,limpspunch_special,limpspunch_slap      ;21
    1382 0000b350                   JJXM_END
    1383                    
    1384 0000b370           limpspunch_special
    1385 0000b370     b5a0          move    *a13(STICK_VAL_CUR),a0
         0000b380     0bc0  
    1386 0000b390     1fc0          btst    MOVE_DOWN_BIT,a0
    1387 0000b3a0     cb2e          jrnz    limpuppercut
    1388                    
    1389 0000b3b0     b5a1          move    *a13(CLOSEST_XDIST),a1
         0000b3c0     0370  
    1390 0000b3d0     0b41          cmpi    55,a1
         0000b3e0     ffc8  
    1391 0000b3f0     c700          jrgt    std_punch
         0000b400     fe5b  
    1392                    
    1393 0000b410                   FACE24  hrt,butts_anim
    1394 0000b4b0     0d5f          calla   change_anim1
         0000b4c0 00000000! 
    1395                    
    1396 0000b4e0                   WRSND   W_BRET,HDBUTT_T1,HDBUTT_T2
    1397                    
    1398 0000b680     0960          rets
    1399                    
    1400 0000b690           limpuppercut
    1401                    
    1402 0000b690     09e0          movi    hrt_4_uppercut_anim,a0
         0000b6a0 00000000! 
    1403 0000b6c0     0d5f          calla   change_anim1a
         0000b6d0 00000000! 
    1404                    
    1405 0000b6f0                   WRSND   W_BRET,UPRCUT_T1,UPRCUT_T2
    1406                    
    1407 0000b890     0960          rets
    1408                    
    1409 0000b8a0           limpspunch_lbowdrop
    1410                    
    1411                    
    1412                    
    1413 0000b8a0     b5ae          move    *a13(CLOSEST_NUM),a14
         0000b8b0     03a0  
    1414 0000b8c0                   X32     a14
    1415 0000b8d0     0b2e          addi    process_ptrs,a14
         0000b8e0 00000000! 
    1416 0000b900     87ce          move    *a14,a14,L
    1417 0000b910     b5c2          move    *a14(PLYRMODE),a2
         0000b920     05c0  
    1418 0000b930     0b42          cmpi    MODE_DEAD,a2
         0000b940     fff6  
    1419 0000b950     ca69          jrz     limpno
    1420 0000b960     b7a1          move    *a13(OBJ_XPOS),a1,L 
         0000b970     0100  
    1421 0000b980     b7c2          move    *a14(OBJ_XPOS),a2,L
         0000b990     0100  
    1422 0000b9a0     4441          sub     a2,a1
TMS340 COFF Macro Assembler Version 6.10     Mon Oct 30 16:55:09 2023
 Copyright (c) 1985-1991  Texas Instruments Incorporated 

meters, names, messages, and scores                                  PAGE   33

    1423 0000b9b0     0381          abs     a1
    1424 0000b9c0     2e01          srl     16,a1
    1425 0000b9d0     0b41          cmpi    30h,a1  ;28
         0000b9e0     ffcf  
    1426 0000b9f0     c45f          jrlt    limpno
    1427                    
    1428                    
    1429 0000ba00     b5ce          move    *a14(OBJ_CONTROL),a14
         0000ba10     0780  
    1430 0000ba20     0b8e          andi    M_FLIPH,a14
         0000ba30 ffffffef  
    1431 0000ba50     b5a0          move    *a13(OBJ_CONTROL),a0
         0000ba60     0780  
    1432 0000ba70     0b80          andi    M_FLIPH,a0
         0000ba80 ffffffef  
    1433 0000baa0     480e          cmp     a0,a14
    1434 0000bab0     ca28          jrz     limpfeet
    1435                    
    1436                    
    1437 0000bac0                   FACE24  hrt,hair_pickup_anim
    1438 0000bb60     0d5f          calla   change_anim1
         0000bb70 00000000! 
    1439                    
    1440 0000bb90                   WRSND   W_BRET,LBOWDROP_T1,LBOWDROP_T2
    1441                        
    1442 0000bd30     0960          rets
    1443                    
    1444 0000bd40           limpfeet
    1445 0000bd40     0b41          cmpi    40h,a1  ;28
         0000bd50     ffbf  
    1446 0000bd60     c428          jrlt    limpno
    1447                    
    1448 0000bd70                   FACE24  hrt,shooter_anim
    1449 0000be10     0d5f          calla   change_anim1a
         0000be20 00000000! 
    1450 0000be40                   WRSND   W_BRET,LBOWDROP_T1,LBOWDROP_T2
    1451 0000bfe0     0960          rets
    1452                    
    1453 0000bff0           limpno
    1454 0000bff0                   FACE24  hrt,ground_punch_anim
    1455 0000c090     0d5f          calla   change_anim1
         0000c0a0 00000000! 
    1456                    
    1457 0000c0c0                   WRSND   W_BRET,LBOWDROP_T1,LBOWDROP_T2
    1458 0000c260     0960          rets
    1459                    
    1460 0000c270           limpspunch_slap
    1461                    
    1462 0000c270                   FACE24  hrt,super_punch2_anim
    1463 0000c310     0d5f          calla   change_anim1a
         0000c320 00000000! 
    1464                    
    1465 0000c340                   WRSND   W_BRET,PUNCH_T1,PUNCH_T2
    1466                    
    1467 0000c4e0     0960          rets
TMS340 COFF Macro Assembler Version 6.10     Mon Oct 30 16:55:09 2023
 Copyright (c) 1985-1991  Texas Instruments Incorporated 

meters, names, messages, and scores                                  PAGE   34

    1468                    
    1469 0000c4f0           limpkick                ;8
    1470 0000c4f0                   JJXM_INIT
    1471 0000c560                   JJXM    NORMAL,          50, 92,limpkick_knee,limpkick_kick             ;0
    1472 0000c630                   JJXM    RUNNING,         50, 92,limpkick_knee,limpkick_kick             ;0
    1473 0000c700                   JJXM    INAIR,           50, 92,limpkick_knee,limpkick_kick             ;2
    1474 0000c7d0                   JJXM    ATTACHED,        50, 92,limpkick_knee,limpkick_kick             ;3
    1475 0000c8a0                   JJXM    ONGROUND,       160,140,limpkick_stomp,limpkick_kick            ;4
    1476 0000c970                   JJXM    BOUNCING,        50, 92,limpkick_knee,limpkick_kick             ;0
    1477 0000ca40                   JJXM    ONTURNBKL,              limpkick_kick                   ;6
    1478 0000ca90                   JJXM    BLOCK,           50, 92,limpkick_knee,limpkick_kick             ;7
    1479 0000cb60                   JJXM    DIZZY,           50, 92,limpkick_knee,limpkick_kick             ;8
    1480 0000cc30                   JJXM    DEAD,           160,140,limpkick_stomp,limpkick_kick            ;9
    1481 0000cd00                   JJXM    OPPOVERHEAD,     50, 92,limpkick_knee,limpkick_kick             ;10
    1482 0000cdd0                   JJXM    CLIMBTURNBKL,           limpkick_kick                   ;11
    1483 0000ce20                   JJXM    WAITANIM,        50, 92,limpkick_knee,limpkick_kick             ;12
    1484 0000ced0                   JJXM    GRAPPLE,         50, 92,limpkick_knee,limpkick_kick             ;13
    1485 0000cf80                   JJXM    MASTER,          50, 92,limpkick_knee,limpkick_kick             ;14
    1486 0000d030                   JJXM    SLAVE,           50, 92,limpkick_knee,limpkick_kick             ;15
    1487 0000d0e0                   JJXM    HEADHOLD,        50, 92,limpkick_knee,limpkick_kick             ;16
    1488 0000d180                   JJXM    HEADHELD,        50, 92,limpkick_knee,limpkick_kick             ;19
    1489 0000d220                   JJXM    CHOKEHOLD,       50, 92,limpkick_knee,limpkick_kick             ;16
    1490 0000d2c0                   JJXM    PUPPET,          50, 92,limpkick_knee,limpkick_kick             ;20
    1491 0000d360                   JJXM    PUPPET2,         50, 92,limpkick_knee,limpkick_kick             ;20
    1492 0000d400                   JJXM    INAIR2,                 limpkick_TB                     ;21
    1493 0000d440                   JJXM_END
    1494                    
    1495 0000d460           limpkick_TB
    1496                            .ref    hrt_kick_TB_anim
    1497 0000d460     09e0          movi    hrt_kick_TB_anim,a0
         0000d470 00000000! 
    1498 0000d490     0d5f          calla   change_anim1a
         0000d4a0 00000000! 
    1499                    
    1500 0000d4c0                   WRSND   W_BRET,KICK_T1,KICK_T2
    1501 0000d660     0960          rets
    1502                    
    1503 0000d670           limpkick_kick
    1504 0000d670           std_kick
    1505                    
    1506 0000d670                   FACE24  hrt,kick_anim
    1507 0000d710     0d5f          calla   change_anim1a
         0000d720 00000000! 
    1508                    
    1509 0000d740                   WRSND   W_BRET,KICK_T1,KICK_T2
    1510 0000d8e0     0960          rets
    1511                    
    1512 0000d8f0           limpkick_knee
    1513 0000d8f0           std_knee
    1514                    
    1515 0000d8f0                   FACE24  hrt,knee_anim
    1516 0000d990     0d5f          calla   change_anim1a
         0000d9a0 00000000! 
    1517                    
    1518 0000d9c0                   WRSND   W_BRET,KICK_T1,KICK_T2
TMS340 COFF Macro Assembler Version 6.10     Mon Oct 30 16:55:09 2023
 Copyright (c) 1985-1991  Texas Instruments Incorporated 

meters, names, messages, and scores                                  PAGE   35

    1519 0000db60     0960          rets
    1520                    
    1521 0000db70           limpkick_stomp
    1522 0000db70           std_stomp
    1523                    
    1524 0000db70                   FACE24  hrt,stomp_anim
    1525 0000dc10     0d5f          calla   change_anim1a
         0000dc20 00000000! 
    1526                    
    1527 0000dc40                   WRSND   W_BRET,KICK_T1,KICK_T2
    1528                    
    1529 0000dde0     0960          rets
    1530                    
    1531 0000ddf0           limppunchkick   ;9
    1532                    
    1533 0000ddf0     09e0          movi    start_run_anim,a0
         0000de00 00000000! 
    1534 0000de20     0d5f          calla   change_anim1a
         0000de30 00000000! 
    1535                    
    1536 0000de50     0960          rets
    1537                    
    1538 0000de60           limpsuper_kick  ;16
    1539 0000de60                   JJXM_INIT
    1540 0000ded0                   JJXM    NORMAL,          60, 60,limpskick_special,limpskick_kick        ;0
    1541 0000dfa0                   JJXM    RUNNING,         60, 60,limpskick_special,limpskick_kick        ;0
    1542 0000e070                   JJXM    INAIR,           60, 60,limpskick_special,limpskick_kick        ;2
    1543 0000e140                   JJXM    ATTACHED,        60, 60,limpskick_special,limpskick_kick        ;3
    1544 0000e210                   JJXM    ONGROUND,       160,140,std_stomp,std_kick              ;4
    1545 0000e2d0                   JJXM    BOUNCING,        60, 60,limpskick_special,limpskick_kick        ;0
    1546 0000e3a0                   JJXM    ONTURNBKL,       60, 96,limpskick_kick,std_kick         ;6
    1547 0000e470                   JJXM    BLOCK,           60, 60,limpskick_special,limpskick_kick        ;7
    1548 0000e540                   JJXM    DIZZY,           60, 60,limpskick_special,limpskick_kick        ;8
    1549 0000e610                   JJXM    DEAD,           160,140,std_stomp,std_kick              ;9
    1550 0000e6e0                   JJXM    OPPOVERHEAD,     60, 60,limpskick_special,limpskick_kick        ;10
    1551 0000e790                   JJXM    CLIMBTURNBKL,    60, 96,limpskick_kick,std_kick         ;11
    1552 0000e850                   JJXM    WAITANIM,        60, 62,limpskick_special,limpskick_kick        ;12
    1553 0000e8f0                   JJXM    GRAPPLE,         60, 62,limpskick_special,limpskick_kick        ;13
    1554 0000e990                   JJXM    MASTER,          60, 62,limpskick_special,limpskick_kick        ;14
    1555 0000ea30                   JJXM    SLAVE,           60, 62,limpskick_special,limpskick_kick        ;15
    1556 0000ead0                   JJXM    HEADHOLD,        60, 62,limpskick_special,limpskick_kick        ;16
    1557 0000eb70                   JJXM    HEADHELD,               std_kick
    1558 0000ebc0                   JJXM    CHOKEHOLD,       60, 62,limpskick_special,limpskick_kick        ;16
    1559 0000ec60                   JJXM    PUPPET,          60, 62,limpskick_special,limpskick_kick        ;20
    1560 0000ed00                   JJXM    PUPPET2,         60, 62,limpskick_special,limpskick_kick        ;20
    1561 0000eda0                   JJXM    INAIR2,                 limpkick_TB                     ;21
    1562 0000edf0                   JJXM_END
    1563                    
    1564 0000ee10           limpgraboh
    1565 0000ee10           limpskick_kick
    1566                    
    1567 0000ee10                   FACE24  hrt,super_kick_anim
    1568 0000eeb0     0d5f          calla   change_anim1a
         0000eec0 00000000! 
    1569                    
TMS340 COFF Macro Assembler Version 6.10     Mon Oct 30 16:55:09 2023
 Copyright (c) 1985-1991  Texas Instruments Incorporated 

meters, names, messages, and scores                                  PAGE   36

    1570 0000eee0                   WRSND   W_BRET,FLYKICK_T1,FLYKICK_T2
    1571 0000f080     0960          rets
    1572                    
    1573 0000f090           limpskick_special
    1574 0000f090     b5a0          move    *a13(STICK_VAL_CUR),a0
         0000f0a0     0bc0  
    1575 0000f0b0     b5a1          move    *a13(NEW_FACING_DIR),a1
         0000f0c0     04d0  
    1576 0000f0d0     0b81          andi    0ch,a1
         0000f0e0 fffffff3  
    1577 0000f100     4801          cmp     a0,a1
    1578 0000f110     cb00          jrnz    std_knee
         0000f120     fe7c  
    1579                    
    1580 0000f130     09e0          movi    hrt_4_knee_fall_anim,a0
         0000f140 00000000! 
    1581 0000f160     0d5f          calla   change_anim1
         0000f170 00000000! 
    1582                    
    1583 0000f190                   WRSND   W_BRET,KICK_T1,KICK_T2
    1584 0000f330     0960          rets
    1585                    
    1586                    
    1587                    
    1588                    
    1589          00064000  hugfXRUN_VAL    equ     HRT_XRUN
    1590          00088000  hugfXRUN2_VAL   equ     HRT_XRUN2
    1591          00028000  hugfZDRIFT_VAL  equ     HRT_ZDRIFT
    1592                    
    1593 0000f340           mode_running
    1594                    
    1595 0000f340     b5a0          move    *a13(RUN_TIME),a0               ;Used for flying kick
         0000f350     07b0  
    1596 0000f360     1020          addk    1,a0
    1597 0000f370     b00d          move    a0,*a13(RUN_TIME)
         0000f380     07b0  
    1598                    
    1599 0000f390     b5a0          move    *a13(USR_VAR1),a0
         0000f3a0     0850  
    1600 0000f3b0     cb17          jrnz    hugfno_vel
    1601                    
    1602 0000f3c0     0d5f          calla   bounce_off_ropes
         0000f3d0 00000000! 
    1603                    
    1604 0000f3f0     09e0          movi    hugfXRUN_VAL,a0
         0000f400 00064000  
    1605                    
    1606 0000f420     b5ae          move    *a13(WALK_FAST),a14
         0000f430     0b40  
    1607 0000f440     ca03          jrz     hugfno
    1608 0000f450     09e0          movi    hugfXRUN2_VAL,a0
         0000f460 00088000  
    1609 0000f480           hugfno
    1610 0000f480     05ae          move    @hyper_speed_on,a14
         0000f490 00000000! 
TMS340 COFF Macro Assembler Version 6.10     Mon Oct 30 16:55:09 2023
 Copyright (c) 1985-1991  Texas Instruments Incorporated 

meters, names, messages, and scores                                  PAGE   37

    1611 0000f4b0     63c0          sll     a14,a0
    1612                    
    1613 0000f4c0     b5ae          move    *a13(MOVE_DIR),a14
         0000f4d0     04b0  
    1614 0000f4e0     1f8e          btst    PLAYER_RIGHT_BIT,a14
    1615 0000f4f0     cb01          jrnz    hugfpos
    1616 0000f500     03a0          neg     a0
    1617 0000f510           hugfpos
    1618 0000f510     b20d          move    a0,*a13(OBJ_XVEL),L
         0000f520     02d0  
    1619                    
    1620 0000f530           hugfno_vel
    1621                    
    1622 0000f530     b5a0          move    *a13(GETUP_TIME),a0             ;delay b4 gaining control
         0000f540     0460  
    1623 0000f550     cb38          jrnz    hugfout_of_control
    1624                    
    1625 0000f560     b5a0          move    *a13(ANIMODE),a0
         0000f570     0660  
    1626 0000f580     1fa0          btst    MODE_UNINT_BIT,a0
    1627 0000f590     cb16          jrnz    hugfno_interrupt
    1628                    
    1629 0000f5a0     b5a0          move    *a13(STICK_VAL_CUR),a0
         0000f5b0     0bc0  
    1630 0000f5c0     b5a1          move    *a13(MOVE_DIR),a1
         0000f5d0     04b0  
    1631 0000f5e0     5401          or      a0,a1
    1632 0000f5f0     0b81          andi    MOVE_LEFT|MOVE_RIGHT,a1
         0000f600 fffffff3  
    1633 0000f620     0b41          cmpi    MOVE_LEFT|MOVE_RIGHT,a1
         0000f630     fff3  
    1634 0000f640     cb0b          jrne    hugfcontinue_run
    1635                    
    1636                            ;braking with stick.  abort run.
    1637                    
    1638 0000f650                   SETMODE NORMAL
    1639                    
    1640 0000f700           hugfcontinue_run
    1641 0000f700           hugfno_interrupt
    1642                    
    1643 0000f700     b5a0          move    *a13(STICK_VAL_CUR),a0
         0000f710     0bc0  
    1644 0000f720     5621          clr     a1
    1645                    
    1646 0000f730     09e1          movi    -hugfZDRIFT_VAL,a1
         0000f740 fffd8000  
    1647 0000f760     1fe0          btst    PLAYER_UP_BIT,a0
    1648 0000f770     cb06          jrnz    hugfsetvel
    1649                    
    1650 0000f780     09e1          movi    hugfZDRIFT_VAL,a1
         0000f790 00028000  
    1651 0000f7b0     1fc0          btst    PLAYER_DOWN_BIT,a0
    1652 0000f7c0     cb01          jrnz    hugfsetvel
    1653                    
    1654 0000f7d0     5621          clr     a1
TMS340 COFF Macro Assembler Version 6.10     Mon Oct 30 16:55:09 2023
 Copyright (c) 1985-1991  Texas Instruments Incorporated 

meters, names, messages, and scores                                  PAGE   38

    1655 0000f7e0           hugfsetvel
    1656 0000f7e0     b22d          move    a1,*a13(OBJ_ZVEL),L
         0000f7f0     0310  
    1657                    
    1658 0000f800     b5a0          move    *a13(DELAY_BUTNS),a0
         0000f810     0ab0  
    1659 0000f820     cb0b          jrnz    hugfout_of_control
    1660                    
    1661                    
    1662                    
    1663                    
    1664 0000f830     b5a0          move    *a13(BUT_VAL_DOWN),a0
         0000f840     0ba0  
    1665 0000f850     0b80          andi    011111b,a0
         0000f860 ffffffe0  
    1666 0000f880                   X32     a0
    1667 0000f890     0b20          addi    hugfaction_table,a0
         0000f8a0 0000f8f0' 
    1668 0000f8c0     8600          move    *a0,a0,L
    1669 0000f8d0     0920          call    a0
    1670 0000f8e0           hugfout_of_control
    1671 0000f8e0     0960          rets
    1672                    
    1673 0000f8f0           hugfaction_table
    1674 0000f8f0 0000fcf0'         .long   hugfz,hugfpunch,hugfblock,hugfblock                     ;0-3
    1675 0000f970 0000fd00'         .long   hugfsuper_punch,hugfsuper_punch,hugfblock,hugfblock     ;4-7
    1676 0000f9f0 00010990'         .long   hugfkick,hugfpunchkick,hugfblock,hugfblock              ;8-11
    1677 0000fa70 0000fd00'         .long   hugfsuper_punch,hugfpunchkick,hugfblock,hugfblock       ;12-15
    1678 0000faf0 00010990'         .long   hugfsuper_kick,hugfsuper_kick,hugfblock,hugfblock       ;16-19
    1679 0000fb70 0000fd00'         .long   hugfgraboh,hugfgraboh,hugfblock,hugfblock               ;20-23
    1680 0000fbf0 00010990'         .long   hugfsuper_kick,hugfpunchkick,hugfblock,hugfblock        ;24-27
    1681 0000fc70 0000fd00'         .long   hugfgraboh,hugfgraboh,hugfblock,hugfblock               ;28-31
    1682                    
    1683                    
    1684 0000fcf0           hugfz
    1685 0000fcf0     0960          rets
    1686                    
    1687                    
    1688 0000fd00           hugfpunch               ;1
    1689 0000fd00           hugfsuper_punch ;4
    1690 0000fd00           hugfpunchkick
    1691 0000fd00           hugfgraboh
    1692 0000fd00                   JJXM_INIT
    1693 0000fd70                   JJXM    NORMAL,                 hugfpunch_clothesline           ;0
    1694 0000fdb0                   JJXM    RUNNING,                hugfpunch_clothesline           ;1
    1695 0000fdf0                   JJXM    INAIR,                  hugfpunch_clothesline           ;2
    1696 0000fe30                   JJXM    ATTACHED,               hugfpunch_clothesline           ;3
    1697 0000fe70                   JJXM    ONGROUND,               hugfpunch_bellyflop             ;4
    1698 0000feb0                   JJXM    BOUNCING,               hugfpunch_clothesline           ;5      
    1699 0000fef0                   JJXM    ONTURNBKL,              hugfpunch_clothesline           ;6
    1700 0000ff30                   JJXM    BLOCK,                  hugfpunch_clothesline           ;7
    1701 0000ff70                   JJXM    DIZZY,                  hugfpunch_clothesline           ;8
    1702 0000ffb0                   JJXM    DEAD,                   hugfpunch_bellyflop             ;9
    1703 0000fff0                   JJXM    OPPOVERHEAD,            hugfpunch_clothesline           ;10
    1704 00010030                   JJXM    CLIMBTURNBKL,           hugfpunch_clothesline           ;11
TMS340 COFF Macro Assembler Version 6.10     Mon Oct 30 16:55:09 2023
 Copyright (c) 1985-1991  Texas Instruments Incorporated 

meters, names, messages, and scores                                  PAGE   39

    1705 00010070                   JJXM    WAITANIM,               hugfpunch_clothesline           ;12
    1706 000100b0                   JJXM    GRAPPLE,                hugfpunch_clothesline           ;13
    1707 000100f0                   JJXM    MASTER,                 hugfpunch_clothesline           ;14
    1708 00010130                   JJXM    SLAVE,                  hugfpunch_clothesline           ;15
    1709 00010170                   JJXM    HEADHOLD,               hugfpunch_clothesline           ;16
    1710 000101b0                   JJXM    HEADHELD,               hugfpunch_clothesline           ;19
    1711 000101f0                   JJXM    CHOKEHOLD,              hugfpunch_clothesline           ;16
    1712 00010230                   JJXM    PUPPET,                 hugfpunch_clothesline           ;20
    1713 00010270                   JJXM    PUPPET2,                hugfpunch_clothesline           ;20
    1714 000102b0                   JJXM    INAIR2,                 hugfpunch_clothesline           ;21
    1715 000102f0                   JJXM_END
    1716                    
    1717                    
    1718 00010310           hugfpunch_rets
    1719 00010310     0960          rets
    1720                    
    1721 00010320           hugfpunch_clothesline
    1722                    
    1723                            ;don't do it if you're running away from your opponent.
    1724 00010320     b5a0          move    *a13(FACING_DIR),a0
         00010330     04c0  
    1725 00010340     b5a1          move    *a13(NEW_FACING_DIR),a1
         00010350     04d0  
    1726 00010360     5001          and     a0,a1
    1727 00010370     0b81          andi    MOVE_LEFT|MOVE_RIGHT,a1
         00010380 fffffff3  
    1728 000103a0     ca94          jrz     hugfz
    1729                    
    1730                    
    1731 000103b0     09e0          movi    hrt_running_ddt_anim,a0
         000103c0 00000000! 
    1732 000103e0     0d5f          calla   change_anim1a
         000103f0 00000000! 
    1733                    
    1734 00010410                   WRSND   W_BRET,FLYKICK_T1,FLYKICK_T2
    1735                    
    1736 000105b0     0960          rets
    1737                    
    1738 000105c0           hugfpunch_bellyflop
    1739 000105c0           std_bellyflop
    1740                    
    1741                            ;don't do it if you're running away from your opponent.
    1742 000105c0     b5a0          move    *a13(FACING_DIR),a0
         000105d0     04c0  
    1743 000105e0     b5a1          move    *a13(NEW_FACING_DIR),a1
         000105f0     04d0  
    1744 00010600     5001          and     a0,a1
    1745 00010610     0b81          andi    MOVE_LEFT|MOVE_RIGHT,a1
         00010620 fffffff3  
    1746 00010640     ca00          jrz     hugfz
         00010650     ff69  
    1747                    
    1748 00010660     09e0          movi    hrt_running_ground_punch_anim,a0
         00010670 00000000! 
    1749 00010690     0d5f          calla   change_anim1a
TMS340 COFF Macro Assembler Version 6.10     Mon Oct 30 16:55:09 2023
 Copyright (c) 1985-1991  Texas Instruments Incorporated 

meters, names, messages, and scores                                  PAGE   40

         000106a0 00000000! 
    1750                    
    1751 000106c0                   WRSND   W_BRET,FLYKICK_T1,FLYKICK_T2
    1752                    
    1753 00010860     0960          rets
    1754                    
    1755 00010870           hugfblock               ;2
    1756                    
    1757 00010870     b7a0          move    *a13(OBJ_XVEL),a0,L
         00010880     02d0  
    1758 00010890     2be0          sra     1,a0
    1759 000108a0     b20d          move    a0,*a13(OBJ_XVEL),L
         000108b0     02d0  
    1760 000108c0                   SETMODE NORMAL
    1761 00010970     c000          jruc    std_block
         00010980     f97b  
    1762                    
    1763 00010990           hugfkick                ;8
    1764 00010990           hugfsuper_kick  ;16
    1765 00010990                   JJXM_INIT
    1766 00010a00                   JJXM    NORMAL,                 hugfkick_flyingkick
    1767 00010a40                   JJXM    BLOCK,                  hugfkick_flyingkick
    1768 00010a80                   JJXM    DIZZY,                  hugfkick_flyingkick
    1769 00010ac0                   JJXM    ONGROUND,               std_bellyflop
    1770 00010b00                   JJXM    RUNNING,                hugfkick_flyingkick
    1771 00010b40                   JJXM    BOUNCING,               hugfkick_flyingkick
    1772 00010b80                   JJXM    ONTURNBKL,              hugfkick_flyingkick
    1773 00010bc0                   JJXM    CLIMBTURNBKL,           hugfkick_flyingkick
    1774 00010c00                   JJXM    INAIR,                  hugfkick_flyingkick
    1775 00010c40                   JJXM    ATTACHED,               hugfkick_flyingkick
    1776 00010c80                   JJXM    DEAD,                   std_bellyflop
    1777 00010cc0                   JJXM    OPPOVERHEAD,            hugfkick_flyingkick
    1778 00010d00                   JJXM    WAITANIM,               hugfkick_flyingkick
    1779 00010d40                   JJXM    GRAPPLE,                hugfkick_flyingkick
    1780 00010d80                   JJXM    MASTER,                 hugfkick_flyingkick
    1781 00010dc0                   JJXM    SLAVE,                  hugfkick_flyingkick
    1782 00010e00                   JJXM    HEADHOLD,               hugfkick_flyingkick
    1783 00010e40                   JJXM    HEADHELD,               hugfkick_flyingkick
    1784 00010e80                   JJXM    CHOKEHOLD,              hugfkick_flyingkick
    1785 00010ec0                   JJXM    PUPPET,                 hugfkick_flyingkick
    1786 00010f00                   JJXM    PUPPET2,                hugfkick_flyingkick
    1787 00010f40                   JJXM    INAIR2,                 hugfkick_flyingkick
    1788 00010f80                   JJXM_END
    1789                    
    1790 00010fa0           hugfkick_rets
    1791 00010fa0     0960          rets
    1792                    
    1793 00010fb0           hugfkick_flyingkick
    1794                    
    1795 00010fb0     0d5f          calla   ck_ignore
         00010fc0 00000000! 
    1796 00010fe0     c800          jrc     hugfz
         00010ff0     fecf  
    1797                    
    1798 00011000     09e0          movi    hrt_flying_kick_anim,a0
TMS340 COFF Macro Assembler Version 6.10     Mon Oct 30 16:55:09 2023
 Copyright (c) 1985-1991  Texas Instruments Incorporated 

meters, names, messages, and scores                                  PAGE   41

         00011010 00000000! 
    1799 00011030     0d5f          calla   change_anim1a
         00011040 00000000! 
    1800                    
    1801 00011060                   SETMODE INAIR
    1802                    
    1803 00011110                   WRSND   W_BRET,FLYKICK_T1,FLYKICK_T2
    1804                    
    1805 000112b0     0960          rets
    1806                    
    1807                    
    1808                    
    1809 000112c0           mode_inair      ;2
    1810                    
    1811 000112c0     0960          rets
    1812                    
    1813                    
    1814 000112d0           mode_attached   ;3
    1815                    
    1816 000112d0     0d5f          calla   keep_attached
         000112e0 00000000! 
    1817 00011300     cb12          jrnz    seoustill_attached
    1818                    
    1819 00011310     5600          clr     a0
    1820 00011320     b20d          move    a0,*a13(ATTACH_PROC),L
         00011330     03e0  
    1821                    
    1822 00011340                   SETMODE NORMAL
    1823                    
    1824 000113f0     09c0          movi    MODE_NORMAL,a0
         00011400     0000  
    1825 00011410     b00d          move    a0,*a13(ANIMODE)
         00011420     0660  
    1826                    
    1827 00011430           seoustill_attached
    1828 00011430     0960          rets
    1829                    
    1830                    
    1831 00011440           mode_onground   ;4
    1832                    
    1833 00011440     0960          rets
    1834                    
    1835                    
    1836                    
    1837 00011450           mode_bouncing   ;5
    1838                    
    1839 00011450     5600          clr     a0
    1840 00011460     b20d          move    a0,*a13(OBJ_XVEL),L
         00011470     02d0  
    1841 00011480     b20d          move    a0,*a13(OBJ_ZVEL),L
         00011490     0310  
    1842                    
    1843 000114a0     b5a0          move    *a13(ANIMODE),a0
         000114b0     0660  
    1844 000114c0     1fe0          btst    MODE_END_BIT,a0
TMS340 COFF Macro Assembler Version 6.10     Mon Oct 30 16:55:09 2023
 Copyright (c) 1985-1991  Texas Instruments Incorporated 

meters, names, messages, and scores                                  PAGE   42

    1845 000114d0     ca20          jrz     maxwnot_ended
    1846                    
    1847 000114e0     b5a0          move    *a13(MOVE_DIR),a0
         000114f0     04b0  
    1848 00011500     0bc0          xori    MOVE_LEFT+MOVE_RIGHT,a0 ;flip LEFT/RIGHT
         00011510 0000000c  
    1849 00011530     b00d          move    a0,*a13(MOVE_DIR)
         00011540     04b0  
    1850                    
    1851 00011550     b5a1          move    *a13(NEW_FACING_DIR),a1
         00011560     04d0  
    1852 00011570     0b81          andi    MOVE_UP+MOVE_DOWN,a1
         00011580 fffffffc  
    1853 000115a0     5401          or      a0,a1                   ;LEFT or RIGHT
    1854 000115b0     b02d          move    a1,*a13(FACING_DIR)     ;face same dir as run
         000115c0     04c0  
    1855                    
    1856 000115d0     09e0          movi    hrt_run2_anim,a0
         000115e0 00000000! 
    1857 00011600     0d5f          calla   change_anim1a
         00011610 00000000! 
    1858                    
    1859 00011630                   SETMODE RUNNING
    1860                    
    1861                    
    1862 000116e0           maxwnot_ended
    1863 000116e0     0960          rets
    1864                    
    1865                    
    1866 000116f0           mode_onturnbkl  ;6
    1867                    
    1868                    
    1869 000116f0     b5a0          move    *a13(STICK_VAL_CUR),a0
         00011700     0bc0  
    1870 00011710     1fc0          btst    PLAYER_DOWN_BIT,a0
    1871 00011720     ca12          jrz     yucgno_climbdown
    1872                    
    1873 00011730     09e0          movi    hrt_climb_down_anim,a0
         00011740 00000000! 
    1874 00011760     0d5f          calla   change_anim1a
         00011770 00000000! 
    1875                    
    1876 00011790                   SETMODE CLIMBTURNBKL
    1877                    
    1878 00011840           yucgno_interrupt
    1879 00011840     0960          rets
    1880                    
    1881 00011850           yucgno_climbdown
    1882 00011850     b5a0          move    *a13(BUT_VAL_DOWN),a0
         00011860     0ba0  
    1883 00011870     0b80          andi    011111b,a0
         00011880 ffffffe0  
    1884 000118a0     ca51          jrz     yucgz
    1885                    
    1886 000118b0                   X32     a0
TMS340 COFF Macro Assembler Version 6.10     Mon Oct 30 16:55:09 2023
 Copyright (c) 1985-1991  Texas Instruments Incorporated 

meters, names, messages, and scores                                  PAGE   43

    1887 000118c0     0b20          addi    yucgaction_table,a0
         000118d0 000119c0' 
    1888 000118f0     8600          move    *a0,a0,L
    1889 00011900     0920          call    a0
    1890                    
    1891 00011910     b5a5          move    *a13(PLYRNUM),a5
         00011920     0580  
    1892 00011930     09e2          movi    JUMP_ROPES,a2
         00011940 00000000! 
    1893 00011960     09c0          movi    1000,a0
         00011970     03e8  
    1894 00011980     0d5f          calla   ADD_IF_SILENT
         00011990 00000000! 
    1895                    
    1896 000119b0     0960          rets
    1897                    
    1898                    
    1899                    
    1900 000119c0           yucgaction_table
    1901 000119c0 00011dc0'         .long   yucgz,yucgpunch,yucgblock,yucgblock                     ;0-3
    1902 00011a40 00011dd0'         .long   yucgsuper_punch,yucgsuper_punch,yucgblock,yucgblock     ;4-7
    1903 00011ac0 00011dd0'         .long   yucgkick,yucgpunchkick,yucgblock,yucgblock              ;8-11
    1904 00011b40 00011dd0'         .long   yucgsuper_punch,yucgpunchkick,yucgblock,yucgblock       ;12-15
    1905 00011bc0 00011dd0'         .long   yucgsuper_kick,yucgsuper_kick,yucgblock,yucgblock       ;16-19
    1906 00011c40 00011dd0'         .long   yucggraboh,yucggraboh,yucgblock,yucgblock               ;20-23
    1907 00011cc0 00011dd0'         .long   yucgsuper_kick,yucgpunchkick,yucgblock,yucgblock        ;24-27
    1908 00011d40 00011dd0'         .long   yucggraboh,yucggraboh,yucgblock,yucgblock               ;28-31
    1909                    
    1910                    
    1911 00011dc0           yucgz
    1912 00011dc0     0960          rets
    1913                    
    1914 00011dd0           yucgpunch               ;1
    1915 00011dd0           yucgblock               ;2
    1916 00011dd0           yucgsuper_punch ;4
    1917 00011dd0           yucgkick                ;8
    1918 00011dd0           yucgsuper_kick  ;16
    1919 00011dd0           yucggraboh
    1920 00011dd0           yucgpunchkick
    1921                    
    1922 00011dd0                   SETMODE INAIR
    1923                    
    1924 00011e80                   WRSND   W_BRET,TURNDIVE_T1,TURNDIVE_T2
    1925                    
    1926 00012020     09e0          movi    hrt_tbukl_leap_anim,a0
         00012030 00000000! 
    1927 00012050     0d5f          calla   change_anim1a
         00012060 00000000! 
    1928                    
    1929 00012080     0960          rets
    1930                    
    1931                    
    1932 00012090           mode_block      ;7
    1933                    
    1934 00012090     b5a0          move    *a13(BLOCK_TIME),a0
TMS340 COFF Macro Assembler Version 6.10     Mon Oct 30 16:55:09 2023
 Copyright (c) 1985-1991  Texas Instruments Incorporated 

meters, names, messages, and scores                                  PAGE   44

         000120a0     0d30  
    1935 000120b0     1020          inc     a0
    1936 000120c0     b00d          move    a0,*a13(BLOCK_TIME)
         000120d0     0d30  
    1937 000120e0     0b40          cmpi    160,a0
         000120f0     ff5f  
    1938 00012100     c413          jrlt    nlkjno
    1939                    
    1940 00012110     0d5f          calla   get_opp_plyrmode
         00012120 00000000! 
    1941 00012140     0b40          cmpi    MODE_BLOCK,a0
         00012150     fff8  
    1942 00012160     cb0d          jrnz    nlkjno
    1943 00012170     b5a0          move    *a13(CLOSEST_XDIST),a0
         00012180     0370  
    1944 00012190     0b40          cmpi    61h,a0
         000121a0     ff9e  
    1945 000121b0     c508          jrge    nlkjno
    1946 000121c0     0b40          cmpi    45,a0
         000121d0     ffd2  
    1947 000121e0     c405          jrlt    nlkjno
    1948 000121f0     b5a0          move    *a13(CLOSEST_ZDIST),a0
         00012200     0390  
    1949 00012210     0b40          cmpi    30,a0
         00012220     ffe1  
    1950 00012230     c461          jrlt    nlkjpunchblock
    1951                    
    1952 00012240           nlkjno
    1953 00012240     b5a0          move    *a13(BUT_VAL_DOWN),a0
         00012250     0ba0  
    1954 00012260     0b80          andi    011111b,a0
         00012270 ffffffe0  
    1955 00012290     ca0c          jrz     nlkjno_interrupt
    1956                    
    1957                            ;press.  if block isn't down, let mode_normal handle it
    1958 000122a0     4c02          move    a0,a2                   ;save a0 from ...val_down
    1959 000122b0     b5a0          move    *a13(BUT_VAL_CUR),a0
         000122c0     0b90  
    1960 000122d0     1fc0          btst    PLAYER_BLOCK_BIT,a0
    1961 000122e0     ca08          jrz     nlkjset_mode_normal
    1962 000122f0     4c40          move    a2,a0                   ;restore a0 from ...val_down
    1963                    
    1964 00012300                   X32     a0
    1965 00012310     0b20          addi    nlkjaction_table,a0
         00012320 00012440' 
    1966 00012340     8600          move    *a0,a0,L
    1967 00012350     0920          call    a0
    1968                    
    1969 00012360           nlkjno_interrupt
    1970 00012360     0960          rets
    1971                    
    1972 00012370           nlkjset_mode_normal
    1973 00012370                   SETMODE NORMAL
    1974 00012420     c000          jruc    mode_normal
         00012430     f563  
TMS340 COFF Macro Assembler Version 6.10     Mon Oct 30 16:55:09 2023
 Copyright (c) 1985-1991  Texas Instruments Incorporated 

meters, names, messages, and scores                                  PAGE   45

    1975                    
    1976 00012440           nlkjaction_table
    1977 00012440 00012840'         .long   nlkjz,nlkjpunchblock,nlkjz      ;0-2
    1978 000124a0 00012850'         .long   nlkjpunchblock          ;3
    1979 000124c0 00012840'         .long   nlkjz,nlkjz,nlkjz,nlkjz,nlkjz,nlkjz,nlkjz       ;4-10
    1980 000125a0 00012840'         .long   nlkjz,nlkjz,nlkjz,nlkjz,nlkjz,nlkjz,nlkjz       ;11-17
    1981 00012680 00012840'         .long   nlkjz,nlkjz,nlkjz,nlkjz,nlkjz,nlkjz,nlkjz       ;18-24
    1982 00012760 00012840'         .long   nlkjz,nlkjz,nlkjz,nlkjz,nlkjz,nlkjz,nlkjz       ;25-31
    1983                    
    1984 00012840           nlkjz
    1985 00012840     0960          rets
    1986                    
    1987 00012850           nlkjpunchblock  ;3
    1988                    
    1989                    
    1990 00012850                   SETMODE NORMAL
    1991                    
    1992 00012900     09e0          movi    hrt_4_push_anim,a0
         00012910 00000000! 
    1993 00012930     0d5f          calla   change_anim1a
         00012940 00000000! 
    1994                    
    1995 00012960                   WRSND   W_BRET,PUSH_T1,PUSH_T2
    1996                    
    1997 00012b00     0960          rets
    1998                    
    1999                    
    2000                    
    2001 00012b10           mode_dizzy      ;8
    2002                    
    2003 00012b10     0960          rets
    2004                    
    2005                    
    2006 00012b20           mode_oppoverhead ;10
    2007 00012b20     0960          rets
    2008                    
    2009                    
    2010 00012b30           mode_climbturnbkl       ;11
    2011                    
    2012 00012b30     0960          rets
    2013                    
    2014                    
    2015                    
    2016 00012b40           mode_waitanim   ;12
    2017                    
    2018 00012b40     b5a0          move    *a13(ANIMODE),a0
         00012b50     0660  
    2019 00012b60     1fe0          btst    MODE_END_BIT,a0
    2020 00012b70     ca03          jrz     fgobnot_ended
    2021                    
    2022 00012b80     b7a0          move    *a13(CODE_ADDR),a0,L
         00012b90     0430  
    2023 00012ba0     0920          call    a0
    2024                    
    2025 00012bb0           fgobnot_ended
TMS340 COFF Macro Assembler Version 6.10     Mon Oct 30 16:55:09 2023
 Copyright (c) 1985-1991  Texas Instruments Incorporated 

meters, names, messages, and scores                                  PAGE   46

    2026 00012bb0     0960          rets
    2027                    
    2028                    
    2029                    
    2030 00012bc0           mode_grapple    ;13
    2031                    
    2032 00012bc0     0960          rets
    2033                    
    2034                    
    2035 00012bd0           mode_master     ;14
    2036                    
    2037 00012bd0     0d5f          calla   master_keep_attached    ;keep slave attached to me
         00012be0 00000000! 
    2038                    
    2039 00012c00     0960          rets
    2040                    
    2041                    
    2042 00012c10           mode_slave      ;15
    2043 00012c10     0960          rets
    2044                    
    2045                    
    2046 00012c20           mode_headhold   ;16
    2047                    
    2048                            .ref    bozo_check
    2049 00012c20     0d5f          calla   bozo_check
         00012c30 00000000! 
    2050 00012c50     c929          jrnc    tsiqfail
    2051                    
    2052 00012c60                   WRSND   W_BRET,GRABFLING_T1,GRABFLING_T2
    2053                    
    2054 00012e00     09e0          movi    hrt_3_pile_driver_anim,a0
         00012e10 00000000! 
    2055 00012e30     05ae          move    @PCNT,a14
         00012e40 00000000! 
    2056 00012e60     1fee          btst    0,a14
    2057 00012e70     ca03          jrz     tsiqtag
    2058 00012e80     09e0          movi    hrt_hh_2_ddt_anim,a0
         00012e90 00000000! 
    2059 00012eb0     0d5f  tsiqtag calla   change_anim1a
         00012ec0 00000000! 
    2060                    
    2061 00012ee0     0960          rets
    2062                    
    2063 00012ef0           tsiqfail
    2064 00012ef0     b7a0          move    *a13(WHOIHIT),a0,L
         00012f00     0500  
    2065 00012f10     b400          move    *a0(PLYRMODE),a0
         00012f20     05c0  
    2066 00012f30     0b40          cmpi    MODE_HEADHELD,a0
         00012f40     ffec  
    2067 00012f50     cb10          jrnz    tsiqexit
    2068                    
    2069                    
    2070 00012f60     b5a0          move    *a13(ANIMODE),a0
         00012f70     0660  
TMS340 COFF Macro Assembler Version 6.10     Mon Oct 30 16:55:09 2023
 Copyright (c) 1985-1991  Texas Instruments Incorporated 

meters, names, messages, and scores                                  PAGE   47

    2071 00012f80     1fa0          btst    MODE_UNINT_BIT,a0
    2072 00012f90     cb0b          jrnz    tsiqno_interrupt
    2073                    
    2074 00012fa0     b5a0          move    *a13(BUT_VAL_DOWN),a0
         00012fb0     0ba0  
    2075 00012fc0     0b80          andi    011111b,a0
         00012fd0 ffffffe0  
    2076 00012ff0                   X32     a0
    2077 00013000     0b20          addi    tsiqaction_table,a0
         00013010 00013230' 
    2078 00013030     8600          move    *a0,a0,L
    2079 00013040     0920          call    a0
    2080                    
    2081 00013050           tsiqno_interrupt
    2082 00013050     0960          rets
    2083                    
    2084 00013060           tsiqexit
    2085 00013060     b7ae          move    *a13(OBJ_ZPOS),a14,L
         00013070     0140  
    2086 00013080     0d0e          subi    [6,0],a14
         00013090 fff9ffff  
    2087 000130b0     b3cd          move    a14,*a13(OBJ_ZPOS),L
         000130c0     0140  
    2088                    
    2089 000130d0     1941          movk    MOVE_DOWN_RIGHT,a1
    2090 000130e0     b5a0          move    *a13(OBJ_CONTROL),a0
         000130f0     0780  
    2091 00013100     1f60          btst    B_FLIPH,a0
    2092 00013110     ca01          jrz     tsiqright
    2093 00013120     18c1          movk    MOVE_DOWN_LEFT,a1
    2094 00013130     b02d  tsiqright       move    a1,*a13(FACING_DIR)
         00013140     04c0  
    2095 00013150     b02d          move    a1,*a13(NEW_FACING_DIR)
         00013160     04d0  
    2096                    
    2097 00013170                   SETMODE NORMAL
    2098                    
    2099 00013220     0960          rets
    2100                    
    2101 00013230           tsiqaction_table
    2102 00013230 00013630'         .long   tsiqz,tsiqpunch,tsiqblock,tsiqblock                     ;0-3
    2103 000132b0 00013840'         .long   tsiqsuper_punch,tsiqsuper_punch,tsiqblock,tsiqblock     ;4-7
    2104 00013330 00013aa0'         .long   tsiqkick,tsiqpunchkick,tsiqblock,tsiqblock              ;8-11
    2105 000133b0 00013840'         .long   tsiqsuper_punch,tsiqpunchkick,tsiqblock,tsiqblock       ;12-15
    2106 00013430 00013ee0'         .long   tsiqsuper_kick,tsiqsuper_kick,tsiqblock,tsiqblock       ;16-19
    2107 000134b0 00013630'         .long   tsiqgraboh,tsiqgraboh,tsiqblock,tsiqblock               ;20-23
    2108 00013530 00013ee0'         .long   tsiqsuper_kick,tsiqpunchkick,tsiqblock,tsiqblock        ;24-27
    2109 000135b0 00013630'         .long   tsiqgraboh,tsiqgraboh,tsiqblock,tsiqblock               ;28-31
    2110                    
    2111                    
    2112                    
    2113 00013630           tsiqblock
    2114 00013630           tsiqgraboh
    2115 00013630           tsiqz           ;0
    2116 00013630     0960          rets
TMS340 COFF Macro Assembler Version 6.10     Mon Oct 30 16:55:09 2023
 Copyright (c) 1985-1991  Texas Instruments Incorporated 

meters, names, messages, and scores                                  PAGE   48

    2117                    
    2118 00013640           tsiqpunch               ;1
    2119                    
    2120 00013640     0d5f          CALLA   FIND_AND_KILL_ENDLESS
         00013650 00000000! 
    2121                    
    2122 00013670     b5a0          move    *a13(STICK_VAL_CUR),a0
         00013680     0bc0  
    2123 00013690     b5a1          move    *a13(NEW_FACING_DIR),a1
         000136a0     04d0  
    2124 000136b0     0b81          andi    0ch,a1
         000136c0 fffffff3  
    2125 000136e0     4801          cmp     a0,a1
    2126 000136f0     cb5a          jrnz    tsiqknee
    2127                    
    2128 00013700                   WRSND   W_BRET,UPRCUT_T1,UPRCUT,T2
    2129                    
    2130 000137d0     09e0          movi    hrt_uppercuts_to_head_anim,a0
         000137e0 00000000! 
    2131 00013800     0d5f          calla   change_anim1a
         00013810 00000000! 
    2132 00013830     0960          rets
    2133                    
    2134 00013840           tsiqsuper_punch ;4
    2135 00013840     0d5f          CALLA   FIND_AND_KILL_ENDLESS
         00013850 00000000! 
    2136                    
    2137 00013870     b5a0          move    *a13(STICK_VAL_CUR),a0
         00013880     0bc0  
    2138 00013890     1fc0          btst    MOVE_DOWN_BIT,a0
    2139 000138a0     ca63          jrz     tsiqsuper_kick
    2140                    
    2141 000138b0                   SPCDMG  D_UPRCUT/2,15
    2142                    
    2143 00013960     09e0          movi    hrt_4_uppercut_anim,a0
         00013970 00000000! 
    2144 00013990     0d5f          calla   change_anim1a
         000139a0 00000000! 
    2145                    
    2146 000139c0                   WRSND   W_BRET,UPRCUT_T1,UPRCUT,T2
    2147                    
    2148 00013a90     0960          rets
    2149                    
    2150                    
    2151 00013aa0           tsiqkick                ;8
    2152                    
    2153 00013aa0     0d5f          CALLA   FIND_AND_KILL_ENDLESS
         00013ab0 00000000! 
    2154                    
    2155 00013ad0     b5a0          move    *a13(STICK_VAL_CUR),a0
         00013ae0     0bc0  
    2156 00013af0     b5a1          move    *a13(NEW_FACING_DIR),a1
         00013b00     04d0  
    2157 00013b10     0b81          andi    0ch,a1
         00013b20 fffffff3  
TMS340 COFF Macro Assembler Version 6.10     Mon Oct 30 16:55:09 2023
 Copyright (c) 1985-1991  Texas Instruments Incorporated 

meters, names, messages, and scores                                  PAGE   49

    2158 00013b40     4801          cmp     a0,a1
    2159 00013b50     cb14          jrnz    tsiqknee
    2160                    
    2161 00013b60                   WRSND   W_BRET,UPRCUT_T1,UPRCUT,T2
    2162                    
    2163 00013c30     09e0          movi    hrt_knees_to_head_anim,a0
         00013c40 00000000! 
    2164 00013c60     0d5f          calla   change_anim1a
         00013c70 00000000! 
    2165 00013c90     0960          rets
    2166                    
    2167 00013ca0           tsiqpunchkick   ;9
    2168 00013ca0           tsiqknee
    2169 00013ca0     0d5f          CALLA   FIND_AND_KILL_ENDLESS
         00013cb0 00000000! 
    2170                    
    2171 00013cd0     09e0          movi    hrt_4_knee_to_head_anim,a0
         00013ce0 00000000! 
    2172 00013d00     0d5f          calla   change_anim1a
         00013d10 00000000! 
    2173 00013d30                   WRSND   W_BRET,KICK_T1,KICK_T2
    2174 00013ed0     0960          rets
    2175                    
    2176 00013ee0           tsiqsuper_kick  ;16
    2177 00013ee0     0960          rets
    2178                    
    2179                    
    2180 00013ef0           mode_puppet2    ;17
    2181                    
    2182 00013ef0     0960          rets
    2183                    
    2184 00013f00           mode_headheld   ;19
    2185 00013f00     b5a0          move    *a13(ANIMODE),a0
         00013f10     0660  
    2186 00013f20     1f40          btst    MODE_NOGRAVITY_BIT,a0
    2187 00013f30     cb80          janz    mode_choking
         00013f40 00000000! 
    2188                    
    2189                    
    2190 00013f60     0d5f          calla   bozo_check
         00013f70 00000000! 
    2191 00013f90     c932          jrnc    whnxfail
    2192                    
    2193 00013fa0                   PUSH    a8
    2194 00013fb0     4da8          move    a13,a8
    2195 00013fc0     0d5f          CALLA   DO_REVERSAL
         00013fd0 00000000! 
    2196 00013ff0     0d5f          CALLA   DO_REVERSAL_MESS
         00014000 00000000! 
    2197 00014020                   PULL    a8
    2198                    
    2199 00014030                   WRSND   W_BRET,GRABFLING_T1,GRABFLING_T2
    2200                    
    2201 000141d0     09e0          movi    hrt_3_pile_driver_anim,a0
         000141e0 00000000! 
TMS340 COFF Macro Assembler Version 6.10     Mon Oct 30 16:55:09 2023
 Copyright (c) 1985-1991  Texas Instruments Incorporated 

meters, names, messages, and scores                                  PAGE   50

    2202 00014200     05ae          move    @PCNT,a14
         00014210 00000000! 
    2203 00014230     1fee          btst    0,a14
    2204 00014240     ca03          jrz     whnxtag
    2205 00014250     09e0          movi    hrt_hh_2_ddt_anim,a0
         00014260 00000000! 
    2206 00014280     0d5f  whnxtag calla   change_anim1a
         00014290 00000000! 
    2207                    
    2208 000142b0     0960          rets
    2209 000142c0           whnxfail
    2210                    
    2211 000142c0     b7a0          move    *a13(ATTACH_PROC),a0,L
         000142d0     03e0  
    2212 000142e0     cb0c          jrnz    whnxno_luck
    2213                    
    2214 000142f0     b5a0          move    *a13(OBJ_YPOSINT),a0
         00014300     0130  
    2215 00014310     b5a1          move    *a13(GROUND_Y),a1
         00014320     0570  
    2216 00014330     4820          cmp     a1,a0                   ;a0-a1
    2217 00014340     c706          jrgt    whnxno_luck
    2218                    
    2219                    
    2220 00014350     09e0          movi    hrt_3_head_held_stand_anim,a0
         00014360 00000000! 
    2221 00014380     0d5f          calla   change_anim1a
         00014390 00000000! 
    2222                    
    2223 000143b0           whnxno_luck
    2224 000143b0     0960          rets
    2225                    
    2226 000143c0           mode_chokehold  ;24
    2227 000143c0     0960          rets
    2228                    
    2229                    
    2230          0003a000  euzkVEL equ     3a000h          ;38000h ;30000h
    2231          00031000  euzkDVEL        equ     31000h          ;27978h ;21f0eh
    2232                    
    2233                    
    2234 000143d0            SUBR hrt_velocity_table
    2235                    
    2236                    
    2237 000143d0 00000000          .long   0,      -euzkVEL        ;0 UP
    2238                    
    2239 00014410 00031000          .long   euzkDVEL,       -euzkDVEL       ;1 UP-RIGHT
    2240                    
    2241 00014450 0003a000          .long   euzkVEL,        0       ;2 RIGHT
    2242                    
    2243 00014490 00031000          .long   euzkDVEL,       euzkDVEL        ;3 DOWN-RIGHT
    2244                    
    2245 000144d0 00000000          .long   0,      euzkVEL ;4 DOWN
    2246                    
    2247 00014510 fffcf000          .long   -euzkDVEL,      euzkDVEL        ;5 DOWN-LEFT
    2248                    
TMS340 COFF Macro Assembler Version 6.10     Mon Oct 30 16:55:09 2023
 Copyright (c) 1985-1991  Texas Instruments Incorporated 

meters, names, messages, and scores                                  PAGE   51

    2249 00014550 fffc6000          .long   -euzkVEL,       0       ;6 LEFT
    2250                    
    2251 00014590 fffcf000          .long   -euzkDVEL,      -euzkDVEL       ;7 UP-LEFT
    2252                    
    2253                    
    2254                    
    2255 000145d0            SUBR hrt_rotate_anims_table
    2256 000145d0 00000000!         .long   hrt_stand2_anim         ;new = up right
    2257 000145f0 00000000!         .long   hrt_2_to_4_turn_anim    ;    = down right
    2258 00014610 00000000!         .long   hrt_2_to_6_turn_anim    ;    = down left ***
    2259 00014630 00000000!         .long   hrt_2_to_8_turn_anim    ;    = up left
    2260                    
    2261 00014650 00000000!         .long   hrt_4_to_2_turn_anim    ;new = up right
    2262 00014670 00000000!         .long   hrt_stand4_anim         ;    = down right
    2263 00014690 00000000!         .long   hrt_4_to_6_turn_anim    ;    = down left
    2264 000146b0 00000000!         .long   hrt_4_to_8_turn_anim    ;    = up left ***
    2265                    
    2266 000146d0 00000000!         .long   hrt_6_to_2_turn_anim    ;new = up right ***
    2267 000146f0 00000000!         .long   hrt_6_to_4_turn_anim    ;    = down right
    2268 00014710 00000000!         .long   hrt_stand6_anim         ;    = down left
    2269 00014730 00000000!         .long   hrt_6_to_8_turn_anim    ;    = up left
    2270                    
    2271 00014750 00000000!         .long   hrt_8_to_2_turn_anim    ;new = up right
    2272 00014770 00000000!         .long   hrt_8_to_4_turn_anim    ;    = down right ***
    2273 00014790 00000000!         .long   hrt_8_to_6_turn_anim    ;    = down left
    2274 000147b0 00000000!         .long   hrt_stand8_anim         ;    = up left
    2275                    
    2276                    
    2277 000147d0            SUBR hrt_leg_anims_table
    2278 000147d0 00000000!         .long   hrt_walk1_f2_anim       ;1 (UP)
    2279 000147f0 00000000!         .long   hrt_walk1_f2_anim       ;2 (UP_RIGHT)
    2280 00014810 00000000!         .long   hrt_walk1_f4_anim       ;3 (RIGHT)
    2281 00014830 00000000!         .long   hrt_walk1_f4_anim       ;4 (DOWN_RIGHT)
    2282 00014850 00000000!         .long   hrt_walk1_f4_anim       ;5 (DOWN)
    2283 00014870 00000000!         .long   hrt_walk1_f4_anim       ;6 (DOWN_LEFT)
    2284 00014890 00000000!         .long   hrt_walk1_f2_anim       ;7 (LEFT)
    2285 000148b0 00000000!         .long   hrt_walk1_f2_anim       ;8 (UP-LEFT)
    2286                    
    2287 000148d0 00000000!         .long   hrt_walk2_f2_anim       ;1 (UP)
    2288 000148f0 00000000!         .long   hrt_walk2_f2_anim       ;2 (UP_RIGHT)
    2289 00014910 00000000!         .long   hrt_walk2_f2_anim       ;3 (RIGHT)
    2290 00014930 00000000!         .long   hrt_walk2_f4_anim       ;4 (DOWN_RIGHT)
    2291 00014950 00000000!         .long   hrt_walk8_f4_anim       ;5 (DOWN)
    2292 00014970 00000000!         .long   hrt_walk8_f4_anim       ;6 (DOWN_LEFT)
    2293 00014990 00000000!         .long   hrt_walk4_f2_anim       ;7 (LEFT)
    2294 000149b0 00000000!         .long   hrt_walk4_f2_anim       ;8 (UP-LEFT)
    2295                    
    2296 000149d0 00000000!         .long   hrt_walk2_f2_anim       ;1 (UP)
    2297 000149f0 00000000!         .long   hrt_walk2_f2_anim       ;2 (UP_RIGHT)
    2298 00014a10 00000000!         .long   hrt_walk2_f2_anim       ;3 (RIGHT)
    2299 00014a30 00000000!         .long   hrt_walk4_f4_anim       ;4 (DOWN_RIGHT)
    2300 00014a50 00000000!         .long   hrt_walk4_f4_anim       ;5 (DOWN)
    2301 00014a70 00000000!         .long   hrt_walk8_f4_anim       ;6 (DOWN_LEFT)
    2302 00014a90 00000000!         .long   hrt_walk6_f2_anim       ;7 (LEFT)
    2303 00014ab0 00000000!         .long   hrt_walk6_f2_anim       ;8 (UP-LEFT)
TMS340 COFF Macro Assembler Version 6.10     Mon Oct 30 16:55:09 2023
 Copyright (c) 1985-1991  Texas Instruments Incorporated 

meters, names, messages, and scores                                  PAGE   52

    2304                    
    2305                    
    2306 00014ad0 00000000!         .long   hrt_walk2_f2_anim       ;1 (UP)
    2307 00014af0 00000000!         .long   hrt_walk8_f2_anim       ;2 (UP_RIGHT)
    2308 00014b10 00000000!         .long   hrt_walk4_f4_anim       ;3 (RIGHT)
    2309 00014b30 00000000!         .long   hrt_walk4_f4_anim       ;4 (DOWN_RIGHT)
    2310 00014b50 00000000!         .long   hrt_walk2_f4_anim       ;5 (DOWN)
    2311 00014b70 00000000!         .long   hrt_walk6_f4_anim       ;6 (DOWN_LEFT)
    2312 00014b90 00000000!         .long   hrt_walk2_f2_anim       ;7 (LEFT)
    2313 00014bb0 00000000!         .long   hrt_walk6_f2_anim       ;8 (UP-LEFT)
    2314                    
    2315 00014bd0 00000000!         .long   hrt_walk5_f2_anim       ;1 (UP)
    2316 00014bf0 00000000!         .long   hrt_walk5_f2_anim       ;2 (UP_RIGHT)
    2317 00014c10 00000000!         .long   hrt_walk5_f4_anim       ;3 (RIGHT)
    2318 00014c30 00000000!         .long   hrt_walk5_f4_anim       ;4 (DOWN_RIGHT)
    2319 00014c50 00000000!         .long   hrt_walk5_f4_anim       ;5 (DOWN)
    2320 00014c70 00000000!         .long   hrt_walk5_f4_anim       ;6 (DOWN_LEFT)
    2321 00014c90 00000000!         .long   hrt_walk5_f2_anim       ;7 (LEFT)
    2322 00014cb0 00000000!         .long   hrt_walk5_f2_anim       ;8 (UP-LEFT)
    2323                    
    2324 00014cd0 00000000!         .long   hrt_walk2_f2_anim       ;1 (UP)
    2325 00014cf0 00000000!         .long   hrt_walk6_f2_anim       ;2 (UP_RIGHT)
    2326 00014d10 00000000!         .long   hrt_walk2_f2_anim       ;3 (RIGHT)
    2327 00014d30 00000000!         .long   hrt_walk6_f4_anim       ;4 (DOWN_RIGHT)
    2328 00014d50 00000000!         .long   hrt_walk2_f4_anim       ;5 (DOWN)
    2329 00014d70 00000000!         .long   hrt_walk4_f4_anim       ;6 (DOWN_LEFT)
    2330 00014d90 00000000!         .long   hrt_walk2_f2_anim       ;7 (LEFT)
    2331 00014db0 00000000!         .long   hrt_walk8_f2_anim       ;8 (UP-LEFT)
    2332                    
    2333 00014dd0 00000000!         .long   hrt_walk2_f2_anim       ;1 (UP)
    2334 00014df0 00000000!         .long   hrt_walk6_f2_anim       ;2 (UP_RIGHT)
    2335 00014e10 00000000!         .long   hrt_walk6_f2_anim       ;3 (RIGHT)
    2336 00014e30 00000000!         .long   hrt_walk8_f4_anim       ;4 (DOWN_RIGHT)
    2337 00014e50 00000000!         .long   hrt_walk4_f4_anim       ;5 (DOWN)
    2338 00014e70 00000000!         .long   hrt_walk4_f4_anim       ;6 (DOWN_LEFT)
    2339 00014e90 00000000!         .long   hrt_walk2_f2_anim       ;7 (LEFT)
    2340 00014eb0 00000000!         .long   hrt_walk2_f2_anim       ;8 (UP-LEFT)
    2341                    
    2342 00014ed0 00000000!         .long   hrt_walk2_f2_anim       ;1 (UP)
    2343 00014ef0 00000000!         .long   hrt_walk4_f2_anim       ;2 (UP_RIGHT)
    2344 00014f10 00000000!         .long   hrt_walk6_f2_anim       ;3 (RIGHT)
    2345 00014f30 00000000!         .long   hrt_walk8_f4_anim       ;4 (DOWN_RIGHT)
    2346 00014f50 00000000!         .long   hrt_walk6_f4_anim       ;5 (DOWN)
    2347 00014f70 00000000!         .long   hrt_walk2_f4_anim       ;6 (DOWN_LEFT)
    2348 00014f90 00000000!         .long   hrt_walk2_f2_anim       ;7 (LEFT)
    2349 00014fb0 00000000!         .long   hrt_walk2_f2_anim       ;8 (UP-LEFT)
    2350                    
    2351                    
    2352 00014fd0            SUBR hrt_torso_anims_table
    2353 00014fd0 00000000!         .long   hrt_torso2_anim         ;new = up right
    2354 00014ff0 00000000!         .long   hrt_2_to_4_turn2_anim   ;    = down right
    2355 00015010 00000000!         .long   hrt_2_to_6_turn2_anim   ;    = down left ***
    2356 00015030 00000000!         .long   hrt_2_to_8_turn2_anim   ;    = up left
    2357                    
    2358 00015050 00000000!         .long   hrt_4_to_2_turn2_anim   ;new = up right
TMS340 COFF Macro Assembler Version 6.10     Mon Oct 30 16:55:09 2023
 Copyright (c) 1985-1991  Texas Instruments Incorporated 

meters, names, messages, and scores                                  PAGE   53

    2359 00015070 00000000!         .long   hrt_torso4_anim         ;    = down right
    2360 00015090 00000000!         .long   hrt_4_to_6_turn2_anim   ;    = down left
    2361 000150b0 00000000!         .long   hrt_4_to_8_turn2_anim   ;    = up left ***
    2362                    
    2363 000150d0 00000000!         .long   hrt_6_to_2_turn2_anim   ;new = up right ***
    2364 000150f0 00000000!         .long   hrt_6_to_4_turn2_anim   ;    = down right
    2365 00015110 00000000!         .long   hrt_torso6_anim         ;    = down left
    2366 00015130 00000000!         .long   hrt_6_to_8_turn2_anim   ;    = up left
    2367                    
    2368 00015150 00000000!         .long   hrt_8_to_2_turn2_anim   ;new = up right
    2369 00015170 00000000!         .long   hrt_8_to_4_turn2_anim   ;    = down right ***
    2370 00015190 00000000!         .long   hrt_8_to_6_turn2_anim   ;    = down left
    2371 000151b0 00000000!         .long   hrt_torso8_anim         ;    = up left
    2372                    
    2373                    
    2374                    
    2375                            .end

 No Errors,  No Warnings
