TMS340 COFF Macro Assembler Version 6.10     Tue Oct 24 16:39:11 2023
 Copyright (c) 1985-1991  Texas Instruments Incorporated 

                                                                     PAGE    1

       1                    **************************************************************
       2                    *
       3                    * Software:     Jason Skiles
       4                    * Initiated:    28 Apr 94
       5                    *
       6                    * COPYRIGHT (C) 1993 WILLIAMS ELECTRONICS GAMES, INC.
       7                    *
       8                    *.Last mod - 4/28/94 22:12
       9                    **************************************************************
      10                    
      11                            .file   "crowd.asm"
      13                            .width  132
      14                            .option b,d,l,t
      15                            .mnolist
      16                    
      17                    
      18                            .include        "mproc.equ"             ;Mproc equates
      19                            .include        "display.equ"           ;Display proc equates
      20                            .include        "gsp.equ"               ;Gsp asm equates
      21                            .include        "sys.equ"
      22                            .include        "game.equ"
      23                            .include        "audit.equ"
      24                            .include        "macros.h"
      25                            .include        "link.equ"
      26                            .include        "sound.h"
      27                    
      28                            .INCLUDE        "SOUND.EQU"
      29                            .include        "crowdimg.tbl"
      30                            .include        "crowdimg.glo"
      31                            .include        "bgndtbl.glo"
      32                            .include        "imgtbl.glo"
      33                    
      34                    *****************************************************************************
      35                    
      36                            .ref    BAKLST,RNDRNG0,RNDPER,START_FLASHES,no_debris,reduce_bog
      37                    
      38                    *****************************************************************************
      39                    
      40              0008  DEF_ANISPD      equ     8
      41              7fff  SPD_FOREVER     equ     7FFFh
      42                    
      43              0000  CROWD_OBJS      equ     0h
      44              0020  CROWD_NORMANIM  equ     20h
      45              0040  CROWD_CHEERANIM equ     40h
      46                    
      47              8000  CANI_GOTO       equ     0 + 8000h
      48              8001  CANI_RNDWAIT    equ     1 + 8000h
      49              8002  CANI_END                equ     2 + 8000H
      50              8003  CANI_CODE       EQU     3 + 8000H
      51              8004  CANI_REPEAT     EQU     4 + 8000H
      52              8005  CANI_SHOULD_REPEAT EQU  5 + 8000H
      53                    
      54                    *STRUCT BOBJANIM
      55              0000  SCPTR   .set    000     ;UHL script pointer (next instruction)
      56              0020  TIME    .set    020h    ;UHW time to hold
TMS340 COFF Macro Assembler Version 6.10     Tue Oct 24 16:39:11 2023
 Copyright (c) 1985-1991  Texas Instruments Incorporated 

crowd stuff                                                          PAGE    2

      57              0030  FRAME   .set    030h    ;UHL current obj
      58              0050  CHEER1  .set    050h    ;UHL cheer1 jump point
      59              0070  CHEER2  .set    070h    ;UHL cheer2 jump point
      60              0090  REPEAT_P .SET   090H    ;UHL REPEAT POINT TO JUMP BACK TO
      61              00b0  REPEAT_N .SET   0B0H    ;UHW REPEAT THIS NUMBER OF TIMES
      62                    *ENDSTRUCT
      63              00c0  BSIZE           equ     REPEAT_N+10h
      64                    
      65              001e  NUMCROWD        equ     30
      66                    
      67              001d  HICROWDZ        equ     58/2            ;high z (after shift)
      68                    
      69 00000000                   BSSX    CROWDDATA,(NUMCROWD+1)*BSIZE
      70                    
      71 00000000                   BSSX    crowd_process,32
      72                    
      73                    *****************************************************************************
      74                    * Main crowd control process
      75                    *
      76                    
      77                    ;NOTE:  The background stuff is doing SOMETHING with ODXOFF and ODYOFF, so
      78                    ;       I'm storing anim points in OXVEL and OYVEL instead.  Those seem safe.
      79                    
      80 00000000            SUBR   crowd_anim
      81                    
      82 00000000     078d          move    a13,@crowd_process,L
         00000010 00001740- 
      83                    
      84                            ;initialize
      85 00000030     09c0          movi    NUMCROWD,a0
         00000040     001e  
      86 00000050     09e1          movi    CROWD_ANIMS,a1
         00000060 00000ea0' 
      87 00000080     09e2          movi    CROWDDATA,a2
         00000090 00000000- 
      88 000000b0           wrhinitloop
      89 000000b0     9623          move    *a1+,a3,L
      90 000000c0     946e          move    *a3+,a14,W
      91 000000d0     b1c2          move    a14,*a2(TIME),W
         000000e0     0020  
      92 000000f0     966e          move    *a3+,a14,L
      93 00000100     b3c2          move    a14,*a2(FRAME),L
         00000110     0030  
      94 00000120     b262          move    a3,*a2(SCPTR),L
         00000130     0000  
      95 00000140     962e          move    *a1+,a14,L
      96 00000150     b3c2          move    a14,*a2(CHEER1),L
         00000160     0050  
      97 00000170     962e          move    *a1+,a14,L
      98 00000180     b3c2          move    a14,*a2(CHEER2),L
         00000190     0070  
      99 000001a0     57ce          CLR     A14
     100 000001b0     b3c2          MOVE    A14,*A2(REPEAT_P),L
         000001c0     0090  
     101 000001d0     b1c2          MOVE    A14,*A2(REPEAT_N)
TMS340 COFF Macro Assembler Version 6.10     Tue Oct 24 16:39:11 2023
 Copyright (c) 1985-1991  Texas Instruments Incorporated 

crowd stuff                                                          PAGE    3

         000001e0     00b0  
     102 000001f0     0b02          addi    BSIZE,a2
         00000200     00c0  
     103 00000210     3ee0          dsj     a0,wrhinitloop
     104                    
     105 00000220     57ce          clr     a14
     106 00000230     b3c2          move    a14,*a2(SCPTR),L
         00000240     0000  
     107                    
     108 00000250           wrhmain_loop
     109                            ;if we're in reduce_bog mode, sleep until someone wakes us up.
     110 00000250     1820          movk    1,a0
     111 00000260     05ae          move    @reduce_bog,a14
         00000270 00000000! 
     112 00000290     ca02          jrz     wrhslp
     113 000002a0     09c0          movi    7FFFh,a0
         000002b0     7fff  
     114 000002c0           wrhslp  SLEEPR  a0
     115                    
     116                            ;update CROWDDATA
     117 00000300     09e4          movi    CROWDDATA-BSIZE,a4
         00000310 ffffff40- 
     118 00000330           wrhcd_loop
     119 00000330     0b04          addi    BSIZE,a4
         00000340     00c0  
     120 00000350     b68e          move    *a4(SCPTR),a14,L
         00000360     0000  
     121 00000370     ca5f          jrz     wrhcd_done
     122 00000380     0d3f          callr   animate_back
         00000390     0001  
     123 000003a0     c0f8          jruc    wrhcd_loop
     124                    
     125                    
     126 000003b0            SUBR   animate_back
     127 000003b0     b48e          move    *a4(TIME),a14,W
         000003c0     0020  
     128 000003d0     142e          dec     a14
     129 000003e0     ca04          jrz     wrhnext_command
     130 000003f0     b1c4          move    a14,*a4(TIME),W
         00000400     0020  
     131 00000410     182e          MOVK    1,A14
     132 00000420     0960          rets
     133                    
     134                    
     135 00000430           wrhnext_command
     136 00000430     b685          move    *a4(SCPTR),a5,L
         00000440     0000  
     137 00000450           wrhnext_in_the_QUEUE
     138 00000450     94ae          move    *a5+,a14,W
     139 00000460     ce0a          jrn     wrhcani_command
     140 00000470     b1c4          move    a14,*a4(TIME),W
         00000480     0020  
     141 00000490     96ae          move    *a5+,a14,L
     142 000004a0     b3c4          move    a14,*a4(FRAME),L
         000004b0     0030  
TMS340 COFF Macro Assembler Version 6.10     Tue Oct 24 16:39:11 2023
 Copyright (c) 1985-1991  Texas Instruments Incorporated 

crowd stuff                                                          PAGE    4

     143 000004c0     b2a4          move    a5,*a4(SCPTR),L
         000004d0     0000  
     144                    
     145                            ;You think a simple CLR would do the job here?  Try it.  I dare you.
     146 000004e0     182e          MOVK    1,A14
     147 000004f0     142e          DEC     A14
     148 00000500     0960          rets
     149                    
     150 00000510           wrhcani_command
     151 00000510     0b8e          andi    7FFFh,a14
         00000520 ffff8000  
     152 00000540                   X32     a14
     153 00000550     0b2e          addi    wrhcani_commands,a14
         00000560 000005a0' 
     154 00000580     87ce          move    *a14,a14,L
     155 00000590     016e          jump    a14
     156                    
     157 000005a0           wrhcani_commands
     158 000005a0 00000700'         .long   wrh_goto
     159 000005c0 00000740'         .long   wrh_rndwait
     160 000005e0 000006d0'         .LONG   wrh_END_ANIM
     161 00000600 00000660'         .LONG   wrh_CODE
     162 00000620 000007d0'         .LONG   wrh_RANDOM_REPEAT
     163 00000640 00000860'         .LONG   wrh_SHOULD_WE_WE_REPEAT
     164                    
     165                    **********
     166 00000660           wrh_CODE
     167 00000660     96a0          MOVE    *A5+,A0,L
     168 00000670     098f          MMTM    SP,A0,A1,A2,A3,A4,A5,A6,A7,A8,A9,A10,A11,A14
         00000680     fff2  
     169 00000690     0920          CALL    A0
     170 000006a0     09af          MMFM    SP,A0,A1,A2,A3,A4,A5,A6,A7,A8,A9,A10,A11,A14
         000006b0     4fff  
     171 000006c0     c0d8          jruc    wrhnext_in_the_QUEUE
     172                    
     173                    
     174 000006d0           wrh_END_ANIM
     175 000006d0     09ce          MOVI    -1,A14
         000006e0     ffff  
     176 000006f0     0960          RETS
     177                    
     178 00000700           wrh_goto
     179 00000700     96a5          move    *a5+,a5,L
     180 00000710     b2a4          move    a5,*a4(SCPTR),L
         00000720     0000  
     181 00000730     c0cf          jruc    wrhnext_command
     182                    
     183                    **********
     184 00000740           wrh_rndwait
     185 00000740     94a0          move    *a5+,a0,W
     186 00000750     0d5f          calla   RNDRNG0
         00000760 00000000! 
     187 00000780     b004          move    a0,*a4(TIME),W
         00000790     0020  
     188 000007a0     b2a4          move    a5,*a4(SCPTR),L
TMS340 COFF Macro Assembler Version 6.10     Tue Oct 24 16:39:11 2023
 Copyright (c) 1985-1991  Texas Instruments Incorporated 

crowd stuff                                                          PAGE    5

         000007b0     0000  
     189 000007c0     0960          rets
     190                    
     191 000007d0           wrh_RANDOM_REPEAT
     192 000007d0     94a0          MOVE    *A5+,A0
     193 000007e0     b2a4          MOVE    A5,*A4(REPEAT_P),L
         000007f0     0090  
     194 00000800     0d5f          CALLA   RNDRNG0
         00000810 00000000! 
     195 00000830     b004          MOVE    A0,*A4(REPEAT_N)
         00000840     00b0  
     196 00000850     c0bf          jruc    wrhnext_in_the_QUEUE
     197                    
     198 00000860           wrh_SHOULD_WE_WE_REPEAT
     199 00000860     b480          MOVE    *A4(REPEAT_N),A0
         00000870     00b0  
     200 00000880     1420          DEC     A0
     201 00000890     b004          MOVE    A0,*A4(REPEAT_N)
         000008a0     00b0  
     202 000008b0     ca07          JRZ     REACHED_LAST_LOOP
     203 000008c0     ce06          JRN     REACHED_LAST_LOOP
     204 000008d0     ba84          MOVE    *A4(REPEAT_P),*A4(SCPTR),L
         000008e0     0090  
         000008f0     0000  
     205 00000900     b685          MOVE    *A4(REPEAT_P),A5,L
         00000910     0090  
     206 00000920     c0b2          jruc    wrhnext_in_the_QUEUE
     207 00000930           REACHED_LAST_LOOP
     208 00000930     5600          CLR     A0
     209 00000940     b004          MOVE    A0,*A4(REPEAT_N)
         00000950     00b0  
     210 00000960     c0ae          jruc    wrhnext_in_the_QUEUE
     211                    
     212                    
     213                    
     214 00000970           wrhcd_done
     215                            .ref    PCNT
     216 00000970     05ae          move    @PCNT,a14
         00000980 00000000! 
     217 000009a0     1fee          btst    0,a14
     218 000009b0     ca89          jrz     wrhmain_loop
     219                    
     220                    
     221                            ;update BAKLST
     222 000009c0     07a8          move    @BAKLST,a8,L
         000009d0 00000000! 
     223                    
     224 000009f0           wrhbakloop
     225 000009f0     b500          move    *a8(OZPOS),a0,W
         00000a00     00d0  
     226 00000a10     2fe0          srl     1,a0
     227 00000a20     c843          jrc     wrhbakskip
     228 00000a30     0b40          cmpi    HICROWDZ,a0
         00000a40     ffe2  
     229 00000a50     c740          jrgt    wrhbakskip
TMS340 COFF Macro Assembler Version 6.10     Tue Oct 24 16:39:11 2023
 Copyright (c) 1985-1991  Texas Instruments Incorporated 

crowd stuff                                                          PAGE    6

     230                    
     231 00000a60     4c01          move    a0,a1
     232 00000a70                   X64     a1
     233 00000a80                   X128    a0
     234 00000a90     4020          add     a1,a0
     235                    
     236 00000aa0     0b20          addi    CROWDDATA,a0
         00000ab0 00000000- 
     237 00000ad0     b600          move    *a0(FRAME),a0,L
         00000ae0     0030  
     238 00000af0     b701          move    *a8(OIMG),a1,L
         00000b00     0170  
     239 00000b10     4801          cmp     a0,a1
     240 00000b20     ca33          jreq    wrhbakskip
     241                    
     242                    ;       callr   anibobj
     243 00000b30     b501          move    *a8(OCTRL),a1,W
         00000b40     00f0  
     244                    
     245 00000b50     b502          move    *a8(OXPOS),a2,W
         00000b60     0090  
     246 00000b70     b503          move    *a8(OXVEL),a3,W
         00000b80     0020  
     247 00000b90     b404          move    *a0(IANIOFFX),a4,W
         00000ba0     0020  
     248 00000bb0     56a5          clr     a5
     249 00000bc0     1f61          btst    B_FLIPH,a1
     250 00000bd0     ca06          jrz     wrhnoflip
     251                    
     252                            ;obj is horz-flipped.  negate the Xanim point and adjust X pos
     253                            ; by XSZold-XSZnew
     254 00000be0     03a4          neg     a4
     255 00000bf0     b505          move    *a8(OSIZEX),a5,W
         00000c00     0130  
     256 00000c10     b40e          move    *a0(ISIZEX),a14,W
         00000c20     0000  
     257 00000c30     45c5          sub     a14,a5
     258 00000c40           wrhnoflip
     259 00000c40     4062          add     a3,a2
     260 00000c50     4482          sub     a4,a2
     261 00000c60     40a2          add     a5,a2
     262 00000c70     b048          move    a2,*a8(OXPOS),W
         00000c80     0090  
     263 00000c90     b088          move    a4,*a8(OXVEL),W
         00000ca0     0020  
     264                    
     265                    
     266 00000cb0     b502          move    *a8(OYPOS),a2,W
         00000cc0     00b0  
     267 00000cd0     b503          move    *a8(OYVEL),a3,W
         00000ce0     0040  
     268 00000cf0     b404          move    *a0(IANIOFFY),a4,W
         00000d00     0030  
     269 00000d10     4062          add     a3,a2
     270 00000d20     4482          sub     a4,a2
TMS340 COFF Macro Assembler Version 6.10     Tue Oct 24 16:39:11 2023
 Copyright (c) 1985-1991  Texas Instruments Incorporated 

crowd stuff                                                          PAGE    7

     271 00000d30     b048          move    a2,*a8(OYPOS),W
         00000d40     00b0  
     272 00000d50     b088          move    a4,*a8(OYVEL),W
         00000d60     0040  
     273                    
     274 00000d70     4c02          move    a0,a2
     275 00000d80     4c23          move    a1,a3
     276                    
     277 00000d90     b248          move    a2,*a8(OIMG),L
         00000da0     0170  
     278 00000db0     ba48          move    *a2(0),*a8(OSIZE),L
         00000dc0     0000  
         00000dd0     0130  
     279 00000de0     ba48          move    *a2(ISAG),*a8(OSAG),L
         00000df0     0040  
         00000e00     0110  
     280                    
     281 00000e10     0545          setf    5,0,0
     282 00000e20     b848          move    *a2(ICTRL+7),*a8(OCTRL+7) ;Write 5 z comp bits
         00000e30     0067  
         00000e40     00f7  
     283                    ;       setf    6,0,0
     284                    ;       move    a3,*a8(OCTRL)           ;Write 6 low bits
     285 00000e50     0570          setf    16,1,0
     286 00000e60           wrhbakskip
     287 00000e60     8708          move    *a8,a8,L
     288 00000e70     cbb7          jrnz    wrhbakloop
     289                    
     290                    
     291 00000e80     c000          jruc    wrhmain_loop
         00000e90     ff3b  
     292                    
     293                    
     294                    ;crowd anim starting points
     295 00000ea0           CROWD_ANIMS
     296 00000ea0 00004540'         .long   wrhjasoncrd_norm, wrhjasoncrd_cheer1,wrhjasoncrd_cheer2
     297 00000f00 00006a50'         .long   wrhtonycrd_norm,  wrhtonycrd_cheer1 ,wrhtonycrd_cheer1
     298 00000f60 00006ba0'         .long   wrhvogel_norm,    wrhvogel_cheer1        ,wrhvogel_cheer2
     299 00000fc0 00006330'         .long   wrhtobias_norm,   wrhtobias_cheer1       ,wrhtobias_cheer2
     300 00001020 00002c40'         .long   wrhalex_norm,     wrhalex_cheer1         ,wrhalex_cheer2
     301                    
     302 00001080 00004fc0'         .long   wrhmarine_norm,   wrhmarine_cheer1       ,wrhmarine_cheer2
     303 000010e0 00003c70'         .long   wrhjake_norm,     wrhjake_cheer1         ,wrhjake_cheer2
     304 00001140 000047b0'         .long   wrhjohnc_norm,    wrhjohnc_cheer1        ,wrhjohnc_cheer2
     305 000011a0 00003480'         .long   wrhdewey_norm,    wrhdewey_cheer1        ,wrhdewey_cheer2
     306 00001200 000041b0'         .long   wrhjason_norm,    wrhjason_cheer1        ,wrhjason_cheer2
     307                    
     308 00001260 00003ee0'         .long   wrhjamie_norm,    wrhjamie_cheer1        ,wrhjamie_cheer2
     309 000012c0 000059e0'         .long   wrhsheridan_norm, wrhsheridan_cheer1,wrhsheridan_cheer2
     310 00001320 000056e0'         .long   wrhsal_norm,      wrhsal_cheer1  ,wrhsal_cheer2
     311 00001380 00004ab0'         .long   wrhjosh_norm,     wrhjosh_cheer1         ,wrhjosh_cheer2
     312 000013e0 00005260'         .long   wrhmark_norm,     wrhmark_cheer1         ,wrhmark_cheer1
     313                    
     314 00001440 000065a0'         .long   wrhtony_norm,     wrhtony_cheer1         ,wrhtony_cheer2
     315 000014a0 00002ee0'         .long   wrhcarlos_norm,   wrhcarlos_cheer1       ,wrhcarlos_cheer2
TMS340 COFF Macro Assembler Version 6.10     Tue Oct 24 16:39:11 2023
 Copyright (c) 1985-1991  Texas Instruments Incorporated 

crowd stuff                                                          PAGE    8

     316 00001500 000053e0'         .long   wrhnewc_norm,     wrhnewc_cheer1         ,wrhnewc_cheer2
     317 00001560 00004de0'         .long   wrhjoy_norm,      wrhjoy_cheer1  ,wrhjoy_cheer1
     318 000015c0 00005eb0'         .long   wrhside1_norm,    wrhside1_cheer1        ,wrhside1_cheer1
     319                    
     320 00001620 00006030'         .long   wrhside2_norm,    wrhside2_cheer1        ,wrhside2_cheer1
     321 00001680 000061b0'         .long   wrhside3_norm,    wrhside3_cheer1        ,wrhside3_cheer1
     322 000016e0 00003980'         .long   wrhgeorge_norm,   wrhgeorge_cheer1       ,wrhgeorge_cheer1
     323 00001740 000031b0'         .long   wrhdave_norm,     wrhdave_cheer1         ,wrhdave_cheer1
     324 000017a0 000019e0'         .long   wrhsophia_norm,   wrhsophia_cheer1       ,wrhsophia_cheer2
     325                    
     326 00001800 00001cb0'         .long   wrhmancow_norm,   wrhmancow_cheer1       ,wrhmancow_cheer2
     327 00001860 00002040'         .long   wrhjak2_norm,   wrhjak2_cheer1   ,wrhjak2_cheer2
     328 000018c0 000023d0'         .long   wrheugene_norm, wrheugene_cheer1         ,wrheugene_cheer2
     329 00001920 00002970'         .long   wrhpenacho_norm,        wrhpenacho_cheer1 ,wrhpenacho_cheer2
     330 00001980 000026a0'         .long   wrhjenni_norm,  wrhjenni_cheer1          ,wrhjenni_cheer2
     331                    
     332                    
     333                    **********
     334                    * SOPHIA
     335                    
     336              0007  wrhSOPHIA_SPD   equ     7
     337                    
     338 000019e0           wrhsophia_norm
     339 000019e0                   WL      SPD_FOREVER,SOFI1
     340 00001a10                   WL      CANI_GOTO,wrhsophia_norm
     341                    
     342 00001a40           wrhsophia_cheer1
     343 00001a40                   WL      wrhSOPHIA_SPD,SOFI2
     344 00001a70                   WL      wrhSOPHIA_SPD,SOFI3
     345 00001aa0                   WL      wrhSOPHIA_SPD,SOFI4
     346 00001ad0                   WL      wrhSOPHIA_SPD,SOFI3
     347 00001b00                   WL      wrhSOPHIA_SPD,SOFI2
     348 00001b30                   WL      CANI_GOTO,wrhsophia_norm
     349                    
     350 00001b60           wrhsophia_cheer2
     351 00001b60                   WL      wrhSOPHIA_SPD,SOFI2
     352 00001b90     8004          .WORD   CANI_REPEAT,4
     353 00001bb0                   WL      wrhSOPHIA_SPD,SOFI3
     354 00001be0                   WL      wrhSOPHIA_SPD,SOFI4
     355 00001c10     8005          .WORD   CANI_SHOULD_REPEAT
     356 00001c20                   WL      wrhSOPHIA_SPD,SOFI3
     357 00001c50                   WL      wrhSOPHIA_SPD,SOFI2
     358 00001c80                   WL      CANI_GOTO,wrhsophia_norm
     359                    
     360                    **********
     361                    * MANCOW
     362                    
     363              0006  wrhMANCOW_SPD   equ     6
     364                    
     365 00001cb0           wrhmancow_norm
     366 00001cb0                   WL      SPD_FOREVER,MANC1
     367 00001ce0                   WL      CANI_GOTO,wrhmancow_norm
     368                    
     369 00001d10           wrhmancow_cheer1
     370 00001d10                   WL      wrhMANCOW_SPD,MANC2
TMS340 COFF Macro Assembler Version 6.10     Tue Oct 24 16:39:11 2023
 Copyright (c) 1985-1991  Texas Instruments Incorporated 

crowd stuff                                                          PAGE    9

     371 00001d40                   WL      wrhMANCOW_SPD,MANC3
     372 00001d70                   WL      wrhMANCOW_SPD,MANC4
     373 00001da0                   WL      wrhMANCOW_SPD,MANC5
     374 00001dd0                   WL      wrhMANCOW_SPD,MANC4
     375 00001e00                   WL      wrhMANCOW_SPD,MANC3
     376 00001e30                   WL      wrhMANCOW_SPD,MANC2
     377 00001e60                   WL      CANI_GOTO,wrhmancow_norm
     378                    
     379 00001e90           wrhmancow_cheer2
     380 00001e90                   WL      wrhMANCOW_SPD,MANC2
     381 00001ec0     8004          .WORD   CANI_REPEAT,6
     382 00001ee0                   WL      wrhMANCOW_SPD,MANC3
     383 00001f10                   WL      wrhMANCOW_SPD,MANC4
     384 00001f40                   WL      wrhMANCOW_SPD,MANC5
     385 00001f70                   WL      wrhMANCOW_SPD,MANC4
     386 00001fa0     8005          .WORD   CANI_SHOULD_REPEAT
     387 00001fb0                   WL      wrhMANCOW_SPD,MANC3
     388 00001fe0                   WL      wrhMANCOW_SPD,MANC2
     389 00002010                   WL      CANI_GOTO,wrhmancow_norm
     390                    
     391                    **********
     392                    * JAK
     393                    
     394              0007  wrhJAK_SPD      equ     7
     395                    
     396 00002040           wrhjak2_norm
     397 00002040                   WL      SPD_FOREVER,JAK1
     398 00002070                   WL      CANI_GOTO,wrhjak2_norm
     399                    
     400 000020a0           wrhjak2_cheer1
     401 000020a0                   WL      wrhJAK_SPD,JAK2
     402 000020d0                   WL      wrhJAK_SPD,JAK3
     403 00002100                   WL      wrhJAK_SPD,JAK4
     404 00002130                   WL      wrhJAK_SPD+3,JAK5
     405 00002160                   WL      wrhJAK_SPD,JAK4
     406 00002190                   WL      wrhJAK_SPD,JAK3
     407 000021c0                   WL      wrhJAK_SPD,JAK2
     408 000021f0                   WL      CANI_GOTO,wrhjak2_norm
     409                    
     410 00002220           wrhjak2_cheer2
     411 00002220                   WL      wrhJAK_SPD,JAK2
     412 00002250     8004          .WORD   CANI_REPEAT,7
     413 00002270                   WL      wrhJAK_SPD,JAK3
     414 000022a0                   WL      wrhJAK_SPD,JAK4
     415 000022d0                   WL      wrhJAK_SPD+3,JAK5
     416 00002300                   WL      wrhJAK_SPD,JAK4
     417 00002330     8005          .WORD   CANI_SHOULD_REPEAT
     418 00002340                   WL      wrhJAK_SPD,JAK3
     419 00002370                   WL      wrhJAK_SPD,JAK2
     420 000023a0                   WL      CANI_GOTO,wrhjak2_norm
     421                    
     422                    
     423                    **********
     424                    * EUGENE
     425                    
TMS340 COFF Macro Assembler Version 6.10     Tue Oct 24 16:39:11 2023
 Copyright (c) 1985-1991  Texas Instruments Incorporated 

crowd stuff                                                          PAGE   10

     426              0007  wrhEUGENE_SPD   equ     7
     427                    
     428 000023d0           wrheugene_norm
     429 000023d0                   WL      SPD_FOREVER,EUG1
     430 00002400                   WL      CANI_GOTO,wrheugene_norm
     431                    
     432 00002430           wrheugene_cheer1
     433 00002430                   WL      wrhEUGENE_SPD,EUG2
     434 00002460                   WL      wrhEUGENE_SPD,EUG3
     435 00002490                   WL      wrhEUGENE_SPD,EUG4
     436 000024c0                   WL      wrhEUGENE_SPD,EUG3
     437 000024f0                   WL      wrhEUGENE_SPD,EUG2
     438 00002520                   WL      CANI_GOTO,wrheugene_norm
     439                    
     440 00002550           wrheugene_cheer2
     441 00002550                   WL      wrhEUGENE_SPD,EUG2
     442 00002580     8004          .WORD   CANI_REPEAT,3
     443 000025a0                   WL      wrhEUGENE_SPD,EUG3
     444 000025d0                   WL      wrhEUGENE_SPD,EUG4
     445 00002600     8005          .WORD   CANI_SHOULD_REPEAT
     446 00002610                   WL      wrhEUGENE_SPD,EUG3
     447 00002640                   WL      wrhEUGENE_SPD,EUG2
     448 00002670                   WL      CANI_GOTO,wrheugene_norm
     449                    
     450                    **********
     451                    * JENNI
     452                    
     453              0007  wrhJENNI_SPD    equ     7
     454                    
     455 000026a0           wrhjenni_norm
     456 000026a0                   WL      SPD_FOREVER,JENI1
     457 000026d0                   WL      CANI_GOTO,wrhjenni_norm
     458                    
     459 00002700           wrhjenni_cheer1
     460 00002700                   WL      wrhJENNI_SPD,JENI2
     461 00002730                   WL      wrhJENNI_SPD,JENI3
     462 00002760                   WL      wrhJENNI_SPD,JENI4
     463 00002790                   WL      wrhJENNI_SPD,JENI3
     464 000027c0                   WL      wrhJENNI_SPD,JENI2
     465 000027f0                   WL      CANI_GOTO,wrhjenni_norm
     466                    
     467 00002820           wrhjenni_cheer2
     468 00002820                   WL      wrhJENNI_SPD,JENI2
     469 00002850     8004          .WORD   CANI_REPEAT,3
     470 00002870                   WL      wrhJENNI_SPD,JENI3
     471 000028a0                   WL      wrhJENNI_SPD,JENI4
     472 000028d0     8005          .WORD   CANI_SHOULD_REPEAT
     473 000028e0                   WL      wrhJENNI_SPD,JENI3
     474 00002910                   WL      wrhJENNI_SPD,JENI2
     475 00002940                   WL      CANI_GOTO,wrhjenni_norm
     476                    
     477                    **********
     478                    * PENACHO
     479                    
     480              0007  wrhPENACHO_SPD  equ     7
TMS340 COFF Macro Assembler Version 6.10     Tue Oct 24 16:39:11 2023
 Copyright (c) 1985-1991  Texas Instruments Incorporated 

crowd stuff                                                          PAGE   11

     481                    
     482 00002970           wrhpenacho_norm
     483 00002970                   WL      SPD_FOREVER,PENA1
     484 000029a0                   WL      CANI_GOTO,wrhpenacho_norm
     485                    
     486 000029d0           wrhpenacho_cheer1
     487 000029d0                   WL      wrhPENACHO_SPD,PENA2
     488 00002a00                   WL      wrhPENACHO_SPD,PENA3
     489 00002a30                   WL      wrhPENACHO_SPD,PENA4
     490 00002a60                   WL      wrhPENACHO_SPD,PENA3
     491 00002a90                   WL      wrhPENACHO_SPD,PENA2
     492 00002ac0                   WL      CANI_GOTO,wrhpenacho_norm
     493                    
     494 00002af0           wrhpenacho_cheer2
     495 00002af0     8004          .WORD   CANI_REPEAT,4
     496 00002b10                   WL      wrhPENACHO_SPD,PENA2
     497 00002b40                   WL      wrhPENACHO_SPD,PENA3
     498 00002b70                   WL      wrhPENACHO_SPD,PENA4
     499 00002ba0                   WL      wrhPENACHO_SPD,PENA3
     500 00002bd0     8005          .WORD   CANI_SHOULD_REPEAT
     501 00002be0                   WL      wrhPENACHO_SPD,PENA2
     502 00002c10                   WL      CANI_GOTO,wrhpenacho_norm
     503                    
     504                    
     505                    
     506                    
     507                    **********
     508                    * Alex
     509                    
     510              0006  wrhALEX_SPD     equ     6
     511                    
     512 00002c40           wrhalex_norm
     513 00002c40                   WL      SPD_FOREVER,ALEX1
     514 00002c70                   WL      CANI_GOTO,wrhalex_norm
     515                    
     516 00002ca0           wrhalex_cheer1
     517 00002ca0                   WL      wrhALEX_SPD,ALEX2
     518 00002cd0                   WL      wrhALEX_SPD,ALEX3
     519 00002d00                   WL      wrhALEX_SPD,ALEX4
     520 00002d30                   WL      wrhALEX_SPD,ALEX2
     521 00002d60                   WL      CANI_GOTO,wrhalex_norm
     522 00002d90           wrhalex_cheer2
     523 00002d90                   WL      wrhALEX_SPD,ALEX2
     524 00002dc0                   WL      wrhALEX_SPD,ALEX3
     525 00002df0     8004          .WORD   CANI_REPEAT,7
     526 00002e10                   WL      wrhALEX_SPD,ALEX4
     527 00002e40                   WL      wrhALEX_SPD,ALEX3
     528 00002e70     8005          .WORD   CANI_SHOULD_REPEAT
     529 00002e80                   WL      wrhALEX_SPD,ALEX2
     530 00002eb0                   WL      CANI_GOTO,wrhalex_norm
     531                    
     532                    **********
     533                    * Carlos
     534                    
     535              0007  wrhCARLOS_SPD   equ     7
TMS340 COFF Macro Assembler Version 6.10     Tue Oct 24 16:39:11 2023
 Copyright (c) 1985-1991  Texas Instruments Incorporated 

crowd stuff                                                          PAGE   12

     536                    
     537 00002ee0           wrhcarlos_norm
     538 00002ee0                   WL      SPD_FOREVER,CARLO1
     539 00002f10                   WL      CANI_GOTO,wrhcarlos_norm
     540                    
     541 00002f40           wrhcarlos_cheer1
     542 00002f40                   WL      wrhCARLOS_SPD,CARLO2
     543 00002f70                   WL      wrhCARLOS_SPD,CARLO3
     544 00002fa0                   WL      wrhCARLOS_SPD,CARLO4
     545 00002fd0                   WL      wrhCARLOS_SPD,CARLO2
     546 00003000                   WL      CANI_GOTO,wrhcarlos_norm
     547                    
     548 00003030           wrhcarlos_cheer2
     549 00003030                   WL      wrhCARLOS_SPD,CARLO2
     550 00003060                   WL      wrhCARLOS_SPD,CARLO3
     551 00003090                   WL      wrhCARLOS_SPD,CARLO4
     552 000030c0     8004          .WORD   CANI_REPEAT,7
     553 000030e0                   WL      wrhCARLOS_SPD,CARLO3
     554 00003110                   WL      wrhCARLOS_SPD,CARLO4
     555 00003140     8005          .WORD   CANI_SHOULD_REPEAT
     556 00003150                   WL      wrhCARLOS_SPD,CARLO2
     557 00003180                   WL      CANI_GOTO,wrhcarlos_norm
     558                    
     559                    **********
     560                    * Dave
     561                    
     562              0008  wrhDAVE_SPD     equ     8
     563                    
     564 000031b0           wrhdave_norm
     565 000031b0                   WL      SPD_FOREVER,DAVEMSK1
     566 000031e0                   WL      CANI_GOTO,wrhdave_norm
     567                    
     568 00003210           wrhdave_cheer1
     569 00003210                   WL      wrhDAVE_SPD,DAVEMSK2
     570 00003240                   WL      wrhDAVE_SPD,DAVEMSK3
     571 00003270                   WL      wrhDAVE_SPD,DAVEMSK4
     572 000032a0                   WL      wrhDAVE_SPD,DAVEMSK3
     573 000032d0                   WL      wrhDAVE_SPD,DAVEMSK2
     574 00003300                   WL      CANI_GOTO,wrhdave_norm
     575                    
     576 00003330           wrhdave_cheer2
     577 00003330     8004          .WORD   CANI_REPEAT,7
     578 00003350                   WL      wrhDAVE_SPD,DAVEMSK2
     579 00003380                   WL      wrhDAVE_SPD,DAVEMSK3
     580 000033b0     8005          .WORD   CANI_SHOULD_REPEAT
     581 000033c0                   WL      wrhDAVE_SPD,DAVEMSK4
     582 000033f0                   WL      wrhDAVE_SPD,DAVEMSK3
     583 00003420                   WL      wrhDAVE_SPD,DAVEMSK2
     584 00003450                   WL      CANI_GOTO,wrhdave_norm
     585                    
     586                    **********
     587                    * Dewey
     588                    
     589              0007  wrhDEWEY_SPD    equ     7
     590                    
TMS340 COFF Macro Assembler Version 6.10     Tue Oct 24 16:39:11 2023
 Copyright (c) 1985-1991  Texas Instruments Incorporated 

crowd stuff                                                          PAGE   13

     591 00003480           wrhdewey_norm
     592 00003480                   WL      wrhDEWEY_SPD,DEWY1
     593 000034b0     8001          .word   CANI_RNDWAIT,TSEC*10
     594 000034d0                   WL      wrhDEWEY_SPD,DEWY2
     595 00003500                   WL      wrhDEWEY_SPD,DEWY3
     596 00003530                   WL      wrhDEWEY_SPD,DEWY4
     597 00003560                   WL      wrhDEWEY_SPD,DEWY3
     598 00003590                   WL      wrhDEWEY_SPD,DEWY2
     599 000035c0                   WL      CANI_GOTO,wrhdewey_norm
     600                    
     601 000035f0           wrhdewey_cheer1
     602 000035f0                   WL      wrhDEWEY_SPD,DEWY1
     603 00003620                   WL      wrhDEWEY_SPD,DEWY2
     604 00003650                   WL      wrhDEWEY_SPD,DEWY3
     605 00003680                   WL      wrhDEWEY_SPD,DEWY4
     606 000036b0                   WL      wrhDEWEY_SPD,DEWY3
     607 000036e0                   WL      wrhDEWEY_SPD,DEWY2
     608 00003710                   WL      CANI_GOTO,wrhdewey_norm
     609                    
     610 00003740           wrhdewey_cheer2
     611 00003740                   WL      wrhDEWEY_SPD,DEWY1
     612 00003770     8004          .WORD   CANI_REPEAT,7
     613 00003790                   WL      wrhDEWEY_SPD,DEWY2
     614 000037c0                   WL      wrhDEWEY_SPD,DEWY3
     615 000037f0                   WL      wrhDEWEY_SPD,DEWY4
     616 00003820                   WL      wrhDEWEY_SPD,DEWY3
     617 00003850                   WL      wrhDEWEY_SPD,DEWY2
     618 00003880                   WL      wrhDEWEY_SPD,DEWY3
     619 000038b0                   WL      wrhDEWEY_SPD,DEWY4
     620 000038e0                   WL      wrhDEWEY_SPD,DEWY3
     621 00003910     8005          .WORD   CANI_SHOULD_REPEAT
     622 00003920                   WL      wrhDEWEY_SPD,DEWY2
     623 00003950                   WL      CANI_GOTO,wrhdewey_norm
     624                    
     625                    **********
     626                    * George
     627                    
     628              0008  wrhGEORGE_SPD   equ     8
     629                    
     630 00003980           wrhgeorge_norm
     631 00003980                   WL      wrhGEORGE_SPD,GEORGE1
     632 000039b0     8001          .word   CANI_RNDWAIT,TSEC*4
     633 000039d0                   WL      wrhGEORGE_SPD,GEORGE2
     634 00003a00                   WL      wrhGEORGE_SPD,GEORGE3
     635 00003a30                   WL      wrhGEORGE_SPD,GEORGE4
     636 00003a60                   WL      wrhGEORGE_SPD,GEORGE3
     637 00003a90                   WL      wrhGEORGE_SPD,GEORGE2
     638 00003ac0                   WL      CANI_GOTO,wrhgeorge_norm
     639                    
     640 00003af0           wrhgeorge_cheer1
     641 00003af0     8004          .WORD   CANI_REPEAT,2
     642 00003b10                   WL      wrhGEORGE_SPD,GEORGE1
     643 00003b40                   WL      wrhGEORGE_SPD,GEORGE2
     644 00003b70                   WL      wrhGEORGE_SPD,GEORGE3
     645 00003ba0                   WL      wrhGEORGE_SPD,GEORGE4
TMS340 COFF Macro Assembler Version 6.10     Tue Oct 24 16:39:11 2023
 Copyright (c) 1985-1991  Texas Instruments Incorporated 

crowd stuff                                                          PAGE   14

     646 00003bd0                   WL      wrhGEORGE_SPD,GEORGE3
     647 00003c00                   WL      wrhGEORGE_SPD,GEORGE2
     648 00003c30     8005          .WORD   CANI_SHOULD_REPEAT
     649 00003c40                   WL      CANI_GOTO,wrhgeorge_norm
     650                    
     651                    **********
     652                    * Jake
     653                    
     654              0008  wrhJAKE_SPD     equ     8
     655                    
     656 00003c70           wrhjake_norm
     657 00003c70                   WL      SPD_FOREVER,JAKE1
     658 00003ca0                   WL      CANI_GOTO,wrhjake_norm
     659                    
     660 00003cd0           wrhjake_cheer1
     661 00003cd0                   WL      wrhJAKE_SPD,JAKE2
     662 00003d00                   WL      wrhJAKE_SPD,JAKE3
     663 00003d30                   WL      wrhJAKE_SPD,JAKE4
     664 00003d60                   WL      wrhJAKE_SPD,JAKE2
     665 00003d90                   WL      CANI_GOTO,wrhjake_norm
     666                    
     667 00003dc0           wrhjake_cheer2
     668 00003dc0                   WL      wrhJAKE_SPD,JAKE2
     669 00003df0     8004          .WORD   CANI_REPEAT,4
     670 00003e10                   WL      wrhJAKE_SPD,JAKE3
     671 00003e40                   WL      wrhJAKE_SPD,JAKE4
     672 00003e70     8005          .WORD   CANI_SHOULD_REPEAT
     673 00003e80                   WL      wrhJAKE_SPD,JAKE2
     674 00003eb0                   WL      CANI_GOTO,wrhjake_norm
     675                    
     676                    **********
     677                    * Jamie
     678                    
     679              0005  wrhJAMIE_SPD    equ     5
     680                    
     681 00003ee0           wrhjamie_norm
     682 00003ee0                   WL      SPD_FOREVER,JAMIE1
     683 00003f10                   WL      CANI_GOTO,wrhjamie_norm
     684                    
     685 00003f40           wrhjamie_cheer1
     686 00003f40                   WL      wrhJAMIE_SPD,JAMIE2
     687 00003f70                   WL      wrhJAMIE_SPD,JAMIE3
     688 00003fa0                   WL      wrhJAMIE_SPD,JAMIE4
     689 00003fd0                   WL      wrhJAMIE_SPD,JAMIE5
     690 00004000                   WL      wrhJAMIE_SPD,JAMIE6
     691 00004030                   WL      CANI_GOTO,wrhjamie_norm
     692                    
     693 00004060           wrhjamie_cheer2
     694 00004060     8004          .WORD   CANI_REPEAT,7
     695 00004080                   WL      wrhJAMIE_SPD,JAMIE2
     696 000040b0                   WL      wrhJAMIE_SPD,JAMIE3
     697 000040e0     8005          .WORD   CANI_SHOULD_REPEAT
     698 000040f0                   WL      wrhJAMIE_SPD,JAMIE4
     699 00004120                   WL      wrhJAMIE_SPD,JAMIE5
     700 00004150                   WL      wrhJAMIE_SPD,JAMIE6
TMS340 COFF Macro Assembler Version 6.10     Tue Oct 24 16:39:11 2023
 Copyright (c) 1985-1991  Texas Instruments Incorporated 

crowd stuff                                                          PAGE   15

     701 00004180                   WL      CANI_GOTO,wrhjamie_norm
     702                    
     703                    **********
     704                    * Jason
     705                    
     706              0006  wrhJASON_SPD    equ     6
     707                    
     708 000041b0           wrhjason_norm
     709 000041b0                   WL      SPD_FOREVER,SERG1
     710 000041e0                   WL      CANI_GOTO,wrhjason_norm
     711                    
     712 00004210           wrhjason_cheer1
     713 00004210                   WL      wrhJASON_SPD,SERG2
     714 00004240                   WL      wrhJASON_SPD,SERG3
     715 00004270                   WL      wrhJASON_SPD,SERG4
     716 000042a0                   WL      wrhJASON_SPD,SERG5
     717 000042d0                   WL      wrhJASON_SPD,SERG4
     718 00004300                   WL      wrhJASON_SPD,SERG3
     719 00004330                   WL      wrhJASON_SPD,SERG2
     720 00004360                   WL      CANI_GOTO,wrhjason_norm
     721                    
     722 00004390           wrhjason_cheer2
     723 00004390                   WL      wrhJASON_SPD,SERG2
     724 000043c0                   WL      wrhJASON_SPD,SERG3
     725 000043f0     8004          .WORD   CANI_REPEAT,7
     726 00004410                   WL      wrhJASON_SPD,SERG4
     727 00004440                   WL      wrhJASON_SPD,SERG5
     728 00004470                   WL      wrhJASON_SPD,SERG4
     729 000044a0                   WL      wrhJASON_SPD,SERG3
     730 000044d0     8005          .WORD   CANI_SHOULD_REPEAT
     731 000044e0                   WL      wrhJASON_SPD,SERG2
     732 00004510                   WL      CANI_GOTO,wrhjason_norm
     733                    
     734                    
     735                    **********
     736                    * Jason crowd
     737                    
     738              0008  wrhJCROWD_SPD   equ     8
     739                    
     740 00004540           wrhjasoncrd_norm
     741 00004540                   WL      SPD_FOREVER,JASONCRD1
     742 00004570                   WL      CANI_GOTO,wrhjasoncrd_norm
     743                    
     744 000045a0           wrhjasoncrd_cheer1
     745 000045a0                   WL      wrhJCROWD_SPD,JASONCRD2
     746 000045d0                   WL      wrhJCROWD_SPD,JASONCRD3
     747 00004600                   WL      wrhJCROWD_SPD,JASONCRD4
     748 00004630                   WL      wrhJCROWD_SPD,JASONCRD5
     749 00004660                   WL      CANI_GOTO,wrhjasoncrd_norm
     750                    
     751 00004690           wrhjasoncrd_cheer2
     752 00004690                   WL      wrhJCROWD_SPD,JASONCRD2
     753 000046c0                   WL      wrhJCROWD_SPD,JASONCRD3
     754 000046f0     8004          .WORD   CANI_REPEAT,7
     755 00004710                   WL      wrhJCROWD_SPD,JASONCRD4
TMS340 COFF Macro Assembler Version 6.10     Tue Oct 24 16:39:11 2023
 Copyright (c) 1985-1991  Texas Instruments Incorporated 

crowd stuff                                                          PAGE   16

     756 00004740                   WL      wrhJCROWD_SPD,JASONCRD5
     757 00004770     8005          .WORD   CANI_SHOULD_REPEAT
     758 00004780                   WL      CANI_GOTO,wrhjasoncrd_norm
     759                    
     760                    
     761                    **********
     762                    * JohnC
     763                    
     764              0008  wrhJOHNC_SPD    equ     8
     765                    
     766 000047b0           wrhjohnc_norm
     767 000047b0                   WL      SPD_FOREVER,JOHNC1
     768 000047e0                   WL      CANI_GOTO,wrhjohnc_norm
     769                    
     770 00004810           wrhjohnc_cheer1
     771 00004810                   WL      wrhJOHNC_SPD,JOHNC2
     772 00004840                   WL      wrhJOHNC_SPD,JOHNC3
     773 00004870                   WL      wrhJOHNC_SPD*3,JOHNC4
     774 000048a0                   WL      wrhJOHNC_SPD,JOHNC3
     775 000048d0                   WL      wrhJOHNC_SPD,JOHNC2
     776 00004900                   WL      CANI_GOTO,wrhjohnc_norm
     777                    
     778 00004930           wrhjohnc_cheer2
     779 00004930                   WL      wrhJOHNC_SPD,JOHNC2
     780 00004960                   WL      wrhJOHNC_SPD,JOHNC3
     781 00004990                   WL      wrhJOHNC_SPD,JOHNC4
     782 000049c0                   WL      wrhJOHNC_SPD,JOHNC3
     783 000049f0                   WL      wrhJOHNC_SPD*3,JOHNC4
     784 00004a20                   WL      wrhJOHNC_SPD,JOHNC3
     785 00004a50                   WL      wrhJOHNC_SPD,JOHNC2
     786 00004a80                   WL      CANI_GOTO,wrhjohnc_norm
     787                    
     788                    **********
     789                    * Josh
     790                    
     791              0007  wrhJOSH_SPD     equ     7
     792                    
     793 00004ab0           wrhjosh_norm
     794 00004ab0                   WL      SPD_FOREVER,JOSH1
     795 00004ae0                   WL      CANI_GOTO,wrhjosh_norm
     796                    
     797 00004b10           wrhjosh_cheer1
     798 00004b10                   WL      wrhJOSH_SPD,JOSH2
     799 00004b40                   WL      wrhJOSH_SPD,JOSH3
     800 00004b70                   WL      wrhJOSH_SPD,JOSH4
     801 00004ba0                   WL      wrhJOSH_SPD,JOSH3
     802 00004bd0                   WL      wrhJOSH_SPD,JOSH4
     803 00004c00                   WL      wrhJOSH_SPD,JOSH2
     804 00004c30                   WL      CANI_GOTO,wrhjosh_norm
     805                    
     806 00004c60           wrhjosh_cheer2
     807 00004c60                   WL      wrhJOSH_SPD,JOSH2
     808 00004c90                   WL      wrhJOSH_SPD,JOSH3
     809 00004cc0                   WL      wrhJOSH_SPD,JOSH4
     810 00004cf0     8004          .WORD   CANI_REPEAT,6
TMS340 COFF Macro Assembler Version 6.10     Tue Oct 24 16:39:11 2023
 Copyright (c) 1985-1991  Texas Instruments Incorporated 

crowd stuff                                                          PAGE   17

     811 00004d10                   WL      wrhJOSH_SPD,JOSH3
     812 00004d40                   WL      wrhJOSH_SPD,JOSH4
     813 00004d70     8005          .WORD   CANI_SHOULD_REPEAT
     814 00004d80                   WL      wrhJOSH_SPD,JOSH2
     815 00004db0                   WL      CANI_GOTO,wrhjosh_norm
     816                    
     817                    
     818                    **********
     819                    * Joy (side crowd)
     820                    
     821              0008  wrhJOY_SPD      equ     8
     822                    
     823 00004de0           wrhjoy_norm
     824 00004de0                   WL      SPD_FOREVER,JOY1
     825 00004e10                   WL      CANI_GOTO,wrhjoy_norm
     826 00004e40           wrhjoy_cheer1
     827 00004e40                   WL      wrhJOY_SPD,JOY1
     828 00004e70                   WL      wrhJOY_SPD,JOY2
     829 00004ea0                   WL      wrhJOY_SPD,JOY3
     830 00004ed0                   WL      wrhJOY_SPD,JOY4
     831 00004f00                   WL      wrhJOY_SPD,JOY5
     832 00004f30                   WL      wrhJOY_SPD,JOY4
     833 00004f60                   WL      wrhJOY_SPD,JOY3
     834 00004f90                   WL      CANI_GOTO,wrhjoy_norm
     835                    
     836                    **********
     837                    * Marine
     838                    
     839              0008  wrhMARINE_SPD   equ     8
     840                    
     841 00004fc0           wrhmarine_norm
     842 00004fc0                   WL      SPD_FOREVER,MARINE1
     843 00004ff0                   WL      CANI_GOTO,wrhmarine_norm
     844                    
     845 00005020           wrhmarine_cheer1
     846 00005020                   WL      wrhMARINE_SPD,MARINE2
     847 00005050                   WL      wrhMARINE_SPD,MARINE3
     848 00005080                   WL      wrhMARINE_SPD,MARINE4
     849 000050b0                   WL      wrhMARINE_SPD,MARINE2
     850 000050e0                   WL      CANI_GOTO,wrhmarine_norm
     851                    
     852 00005110           wrhmarine_cheer2
     853 00005110                   WL      wrhMARINE_SPD,MARINE2
     854 00005140     8004          .WORD   CANI_REPEAT,6
     855 00005160                   WL      wrhMARINE_SPD,MARINE3
     856 00005190                   WL      wrhMARINE_SPD,MARINE4
     857 000051c0     8005          .WORD   CANI_SHOULD_REPEAT
     858 000051d0                   WL      wrhMARINE_SPD,MARINE3
     859 00005200                   WL      wrhMARINE_SPD,MARINE2
     860 00005230                   WL      CANI_GOTO,wrhmarine_norm
     861                    
     862                    **********
     863                    * Mark
     864                    
     865              0008  wrhMARK_SPD     equ     8
TMS340 COFF Macro Assembler Version 6.10     Tue Oct 24 16:39:11 2023
 Copyright (c) 1985-1991  Texas Instruments Incorporated 

crowd stuff                                                          PAGE   18

     866                    
     867 00005260           wrhmark_norm
     868 00005260                   WL      SPD_FOREVER,TURMEL1
     869 00005290                   WL      CANI_GOTO,wrhmark_norm
     870                    
     871 000052c0           wrhmark_cheer1
     872 000052c0                   WL      wrhMARK_SPD,TURMEL2
     873 000052f0                   WL      wrhMARK_SPD,TURMEL3
     874 00005320                   WL      20,TURMEL4
     875 00005350                   WL      wrhMARK_SPD,TURMEL3
     876 00005380                   WL      wrhMARK_SPD,TURMEL2
     877 000053b0                   WL      CANI_GOTO,wrhmark_norm
     878                    
     879                    **********
     880                    * Newc
     881                    
     882              0009  wrhNEWC_SPD     equ     9
     883                    
     884 000053e0           wrhnewc_norm
     885 000053e0                   WL      SPD_FOREVER,NEWCOM1
     886 00005410                   WL      CANI_GOTO,wrhnewc_norm
     887                    
     888 00005440           wrhnewc_cheer1
     889 00005440                   WL      wrhNEWC_SPD,NEWCOM2
     890 00005470                   WL      wrhNEWC_SPD,NEWCOM3
     891 000054a0                   WL      wrhNEWC_SPD,NEWCOM4
     892 000054d0                   WL      wrhNEWC_SPD,NEWCOM3
     893 00005500                   WL      wrhNEWC_SPD,NEWCOM4
     894 00005530                   WL      wrhNEWC_SPD,NEWCOM3
     895 00005560                   WL      wrhNEWC_SPD,NEWCOM2
     896 00005590                   WL      CANI_GOTO,wrhnewc_norm
     897                    
     898 000055c0           wrhnewc_cheer2
     899 000055c0                   WL      wrhNEWC_SPD,NEWCOM2
     900 000055f0     8004          .WORD   CANI_REPEAT,6
     901 00005610                   WL      wrhNEWC_SPD,NEWCOM3
     902 00005640                   WL      wrhNEWC_SPD,NEWCOM4
     903 00005670     8005          .WORD   CANI_SHOULD_REPEAT
     904 00005680                   WL      wrhNEWC_SPD,NEWCOM2
     905 000056b0                   WL      CANI_GOTO,wrhnewc_norm
     906                    
     907                    **********
     908                    * Sal
     909                    
     910              0008  wrhSAL_SPD      equ     8
     911                    
     912 000056e0           wrhsal_norm
     913 000056e0                   WL      SPD_FOREVER,SAL1
     914 00005710                   WL      CANI_GOTO,wrhsal_norm
     915                    
     916 00005740           wrhsal_cheer1
     917 00005740                   WL      wrhSAL_SPD,SAL2
     918 00005770                   WL      wrhSAL_SPD,SAL3
     919 000057a0                   WL      wrhSAL_SPD,SAL4
     920 000057d0                   WL      wrhSAL_SPD,SAL3
TMS340 COFF Macro Assembler Version 6.10     Tue Oct 24 16:39:11 2023
 Copyright (c) 1985-1991  Texas Instruments Incorporated 

crowd stuff                                                          PAGE   19

     921 00005800                   WL      wrhSAL_SPD,SAL4
     922 00005830                   WL      wrhSAL_SPD,SAL3
     923 00005860                   WL      wrhSAL_SPD,SAL2
     924 00005890                   WL      CANI_GOTO,wrhsal_norm
     925                    
     926 000058c0           wrhsal_cheer2
     927 000058c0                   WL      wrhSAL_SPD,SAL2
     928 000058f0     8004          .WORD   CANI_REPEAT,7
     929 00005910                   WL      wrhSAL_SPD,SAL3
     930 00005940                   WL      wrhSAL_SPD,SAL4
     931 00005970     8005          .WORD   CANI_SHOULD_REPEAT
     932 00005980                   WL      wrhSAL_SPD,SAL2
     933 000059b0                   WL      CANI_GOTO,wrhsal_norm
     934                    
     935                    **********
     936                    * Sheridan
     937                    
     938              0008  wrhSHERIDAN_SPD equ     8
     939                    
     940 000059e0           wrhsheridan_norm
     941 000059e0                   WL      1,SHERID1
     942 00005a10     8001          .word   CANI_RNDWAIT,TSEC*20
     943 00005a30                   WL      wrhSHERIDAN_SPD,SHERID6
     944 00005a60                   WL      wrhSHERIDAN_SPD,SHERID7
     945 00005a90                   WL      wrhSHERIDAN_SPD*2,SHERID8
     946 00005ac0                   WL      wrhSHERIDAN_SPD,SHERID7
     947 00005af0                   WL      wrhSHERIDAN_SPD,SHERID6
     948 00005b20                   WL      CANI_GOTO,wrhsheridan_norm
     949                    
     950 00005b50           wrhsheridan_cheer1
     951 00005b50                   WL      wrhSHERIDAN_SPD,SHERID1
     952 00005b80                   WL      wrhSHERIDAN_SPD,SHERID2
     953 00005bb0                   WL      wrhSHERIDAN_SPD,SHERID3
     954 00005be0                   WL      wrhSHERIDAN_SPD,SHERID4
     955 00005c10                   WL      wrhSHERIDAN_SPD,SHERID5
     956 00005c40                   WL      wrhSHERIDAN_SPD,SHERID6
     957 00005c70                   WL      wrhSHERIDAN_SPD,SHERID7
     958 00005ca0                   WL      wrhSHERIDAN_SPD*2,SHERID8
     959 00005cd0                   WL      wrhSHERIDAN_SPD,SHERID7
     960 00005d00                   WL      wrhSHERIDAN_SPD,SHERID6
     961 00005d30                   WL      CANI_GOTO,wrhsheridan_norm
     962                    
     963 00005d60           wrhsheridan_cheer2
     964 00005d60                   WL      wrhSHERIDAN_SPD,SHERID1
     965 00005d90                   WL      wrhSHERIDAN_SPD,SHERID2
     966 00005dc0                   WL      wrhSHERIDAN_SPD,SHERID3
     967 00005df0     8004          .WORD   CANI_REPEAT,3
     968 00005e10                   WL      wrhSHERIDAN_SPD,SHERID4
     969 00005e40                   WL      wrhSHERIDAN_SPD,SHERID5
     970 00005e70     8005          .WORD   CANI_SHOULD_REPEAT
     971 00005e80                   WL      CANI_GOTO,wrhsheridan_norm
     972                    
     973                    **********
     974                    * Side crowd
     975                    
TMS340 COFF Macro Assembler Version 6.10     Tue Oct 24 16:39:11 2023
 Copyright (c) 1985-1991  Texas Instruments Incorporated 

crowd stuff                                                          PAGE   20

     976              0008  wrhSDCRD_SPD    equ     8
     977                    
     978 00005eb0           wrhside1_norm
     979 00005eb0                   WL      SPD_FOREVER,SDCRD1A
     980 00005ee0                   WL      CANI_GOTO,wrhside1_norm
     981                    
     982 00005f10           wrhside1_cheer1
     983 00005f10                   WL      wrhSDCRD_SPD,SDCRD2A
     984 00005f40                   WL      wrhSDCRD_SPD,SDCRD3A
     985 00005f70                   WL      wrhSDCRD_SPD,SDCRD4A
     986 00005fa0                   WL      wrhSDCRD_SPD,SDCRD3A
     987 00005fd0                   WL      wrhSDCRD_SPD,SDCRD2A
     988 00006000                   WL      CANI_GOTO,wrhside1_norm
     989                    
     990 00006030           wrhside2_norm
     991 00006030                   WL      SPD_FOREVER,SDCRD1B
     992 00006060                   WL      CANI_GOTO,wrhside2_norm
     993                    
     994 00006090           wrhside2_cheer1
     995 00006090                   WL      wrhSDCRD_SPD,SDCRD2B
     996 000060c0                   WL      wrhSDCRD_SPD,SDCRD3B
     997 000060f0                   WL      wrhSDCRD_SPD,SDCRD4B
     998 00006120                   WL      wrhSDCRD_SPD,SDCRD3B
     999 00006150                   WL      wrhSDCRD_SPD,SDCRD2B
    1000 00006180                   WL      CANI_GOTO,wrhside2_norm
    1001                    
    1002 000061b0           wrhside3_norm
    1003 000061b0                   WL      SPD_FOREVER,SDCRD1C
    1004 000061e0                   WL      CANI_GOTO,wrhside3_norm
    1005                    
    1006 00006210           wrhside3_cheer1
    1007 00006210                   WL      wrhSDCRD_SPD,SDCRD2C
    1008 00006240                   WL      wrhSDCRD_SPD,SDCRD3C
    1009 00006270                   WL      wrhSDCRD_SPD,SDCRD4C
    1010 000062a0                   WL      wrhSDCRD_SPD,SDCRD3C
    1011 000062d0                   WL      wrhSDCRD_SPD,SDCRD2C
    1012 00006300                   WL      CANI_GOTO,wrhside3_norm
    1013                    
    1014                    **********
    1015                    * Tobias
    1016                    
    1017              0007  wrhTOBIAS_SPD   equ     7
    1018                    
    1019 00006330           wrhtobias_norm
    1020 00006330                   WL      SPD_FOREVER,TOBIAS1
    1021 00006360                   WL      CANI_GOTO,wrhtobias_norm
    1022                    
    1023 00006390           wrhtobias_cheer1
    1024 00006390                   WL      wrhTOBIAS_SPD,TOBIAS2
    1025 000063c0                   WL      wrhTOBIAS_SPD,TOBIAS3
    1026 000063f0                   WL      wrhTOBIAS_SPD,TOBIAS4
    1027 00006420                   WL      wrhTOBIAS_SPD,TOBIAS2
    1028 00006450                   WL      CANI_GOTO,wrhtobias_norm
    1029                    
    1030 00006480           wrhtobias_cheer2
TMS340 COFF Macro Assembler Version 6.10     Tue Oct 24 16:39:11 2023
 Copyright (c) 1985-1991  Texas Instruments Incorporated 

crowd stuff                                                          PAGE   21

    1031 00006480                   WL      wrhTOBIAS_SPD,TOBIAS2
    1032 000064b0     8004          .WORD   CANI_REPEAT,7
    1033 000064d0                   WL      wrhTOBIAS_SPD,TOBIAS3
    1034 00006500                   WL      wrhTOBIAS_SPD,TOBIAS4
    1035 00006530     8005          .WORD   CANI_SHOULD_REPEAT
    1036 00006540                   WL      wrhTOBIAS_SPD,TOBIAS2
    1037 00006570                   WL      CANI_GOTO,wrhtobias_norm
    1038                    
    1039                    **********
    1040                    * Tony
    1041                    
    1042              0007  wrhTONY_SPD     equ     7
    1043                    
    1044 000065a0           wrhtony_norm
    1045 000065a0                   WL      SPD_FOREVER,CRAZY1
    1046 000065d0                   WL      CANI_GOTO,wrhtony_norm
    1047                    
    1048 00006600           wrhtony_cheer1
    1049 00006600                   WL      wrhTONY_SPD,CRAZY2
    1050 00006630                   WL      wrhTONY_SPD,CRAZY3
    1051 00006660                   WL      wrhTONY_SPD,CRAZY4
    1052 00006690                   WL      wrhTONY_SPD,CRAZY5
    1053 000066c0                   WL      wrhTONY_SPD,CRAZY4
    1054 000066f0                   WL      wrhTONY_SPD,CRAZY5
    1055 00006720                   WL      wrhTONY_SPD,CRAZY4
    1056 00006750                   WL      wrhTONY_SPD,CRAZY3
    1057 00006780                   WL      wrhTONY_SPD,CRAZY2
    1058 000067b0                   WL      CANI_GOTO,wrhtony_norm
    1059                    
    1060 000067e0           wrhtony_cheer2
    1061 000067e0                   WL      wrhTONY_SPD,CRAZY2
    1062 00006810                   WL      wrhTONY_SPD,CRAZY3
    1063 00006840     8004          .WORD   CANI_REPEAT,4
    1064 00006860                   WL      wrhTONY_SPD,CRAZY4
    1065 00006890                   WL      wrhTONY_SPD,CRAZY5
    1066 000068c0                   WL      wrhTONY_SPD,CRAZY4
    1067 000068f0                   WL      wrhTONY_SPD,CRAZY3
    1068 00006920                   WL      wrhTONY_SPD,CRAZY4
    1069 00006950                   WL      wrhTONY_SPD,CRAZY5
    1070 00006980     8005          .WORD   CANI_SHOULD_REPEAT
    1071 00006990                   WL      wrhTONY_SPD,CRAZY4
    1072 000069c0                   WL      wrhTONY_SPD,CRAZY3
    1073 000069f0                   WL      wrhTONY_SPD,CRAZY2
    1074 00006a20                   WL      CANI_GOTO,wrhtony_norm
    1075                    
    1076                    
    1077                    **********
    1078                    * Tony crowd
    1079                    
    1080              0008  wrhTONYC_SPD    equ     8
    1081                    
    1082 00006a50           wrhtonycrd_norm
    1083 00006a50                   WL      SPD_FOREVER,TONYCRD1
    1084 00006a80                   WL      CANI_GOTO,wrhtonycrd_norm
    1085                    
TMS340 COFF Macro Assembler Version 6.10     Tue Oct 24 16:39:11 2023
 Copyright (c) 1985-1991  Texas Instruments Incorporated 

crowd stuff                                                          PAGE   22

    1086 00006ab0           wrhtonycrd_cheer1
    1087 00006ab0                   WL      wrhTONYC_SPD,TONYCRD2
    1088 00006ae0                   WL      wrhTONYC_SPD,TONYCRD3
    1089 00006b10                   WL      wrhTONYC_SPD,TONYCRD4
    1090 00006b40                   WL      wrhTONYC_SPD,TONYCRD5
    1091 00006b70                   WL      CANI_GOTO,wrhtonycrd_norm
    1092                    
    1093                    **********
    1094                    * Vogel
    1095                    
    1096              0008  wrhVOGEL_SPD    equ     8
    1097                    
    1098 00006ba0           wrhvogel_norm
    1099 00006ba0                   WL      SPD_FOREVER,VOGEL1
    1100 00006bd0                   WL      CANI_GOTO,wrhvogel_norm
    1101                    
    1102 00006c00           wrhvogel_cheer1
    1103 00006c00                   WL      wrhVOGEL_SPD,VOGEL2
    1104 00006c30                   WL      wrhVOGEL_SPD,VOGEL3
    1105 00006c60                   WL      wrhVOGEL_SPD,VOGEL4
    1106 00006c90                   WL      wrhVOGEL_SPD,VOGEL3
    1107 00006cc0                   WL      wrhVOGEL_SPD,VOGEL2
    1108 00006cf0                   WL      CANI_GOTO,wrhvogel_norm
    1109                    
    1110 00006d20           wrhvogel_cheer2
    1111 00006d20                   WL      wrhVOGEL_SPD,VOGEL2
    1112 00006d50     8004          .WORD   CANI_REPEAT,7
    1113 00006d70                   WL      wrhVOGEL_SPD,VOGEL3
    1114 00006da0                   WL      wrhVOGEL_SPD,VOGEL4
    1115 00006dd0     8005          .WORD   CANI_SHOULD_REPEAT
    1116 00006de0                   WL      wrhVOGEL_SPD,VOGEL2
    1117 00006e10                   WL      CANI_GOTO,wrhvogel_norm
    1118                    
    1119 00006e40            SUBR   DO_CROWD_CHEER
    1120 00006e40     1863          MOVK    C_OVERIDE|C_LONG,A3
    1121 00006e50     5684          CLR     A4
    1122                    
    1123                    *****************************************************************************
    1124                    * Causes the crowd to cheer.
    1125                    
    1126                    ;INPUT A3 = BIT 0 1=LONG OR 0=SHORT TYPE OF ANIMATION
    1127                    ;           BIT 1 1=OVERRIDE WHAT IS ALREADY GOING ON OR NOT
    1128                    ;          BIT 2 1=DO RANDOM NUMBER OF PEOPLE IN AUDIENCE 
    1129                    ;      A4 = RNDPER VALUE IF BIT 2 SET IN A3
    1130 00006e60            SUBR   crowd_cheer
    1131                                       
    1132 00006e60     56e7          CLR     A7
    1133 00006e70     1fa3          BTST    B_RANDOM,A3
    1134 00006e80     ca01          JRZ     NO_RANDOMNESS
    1135 00006e90     4c87          MOVE    A4,A7
    1136 00006ea0           NO_RANDOMNESS
    1137 00006ea0     09e4          movi    CROWDDATA,a4
         00006eb0 00000000- 
    1138 00006ed0     09c5          movi    NUMCROWD,a5
         00006ee0     001e  
TMS340 COFF Macro Assembler Version 6.10     Tue Oct 24 16:39:11 2023
 Copyright (c) 1985-1991  Texas Instruments Incorporated 

crowd stuff                                                          PAGE   23

    1139 00006ef0     1826          movk    1,a6
    1140 00006f00           wrhloop
    1141 00006f00     b681          MOVE    *A4(CHEER1),A1,L
         00006f10     0050  
    1142 00006f20     0b61          CMPI    wrhside2_cheer1,A1
         00006f30 ffff9f6f' 
    1143 00006f50     ca3c          JREQ    DO_NEXT_PERSON
    1144 00006f60     0b61          CMPI    wrhside3_cheer1,A1
         00006f70 ffff9def' 
    1145 00006f90     ca38          JREQ    DO_NEXT_PERSON
    1146 00006fa0     0b61          CMPI    wrhdave_cheer1,A1
         00006fb0 ffffcdef' 
    1147 00006fd0     ca34          JREQ    DO_NEXT_PERSON
    1148 00006fe0     4ce0          MOVE    A7,A0
    1149 00006ff0     ca04          JRZ     DO_THEM_ALL
    1150 00007000     0d5f          CALLA   RNDPER
         00007010 00000000! 
    1151 00007030     c22e          JRLS    DO_NEXT_PERSON
    1152 00007040           DO_THEM_ALL
    1153 00007040     1fc3          BTST    B_OVERRIDE,A3
    1154 00007050     cb06          JRNZ    JUST_DO_IT_ANYWAY
    1155 00007060     b688          MOVE    *A4(CHEER1),A8,L
         00007070     0050  
    1156 00007080     b689          MOVE    *A4(SCPTR),A9,L
         00007090     0000  
    1157 000070a0     4909          CMP     A8,A9
    1158 000070b0     c526          JRGE    DO_NEXT_PERSON
    1159 000070c0           JUST_DO_IT_ANYWAY
    1160 000070c0     ba84          move    *a4(CHEER1),*a4(SCPTR),L
         000070d0     0050  
         000070e0     0000  
    1161 000070f0     1fe3          BTST    B_L_OR_S,A3
    1162 00007100     ca03          JRZ     OKAY_DO_SHORT
    1163 00007110     ba84          move    *a4(CHEER2),*a4(SCPTR),L
         00007120     0070  
         00007130     0000  
    1164 00007140           OKAY_DO_SHORT
    1165 00007140     b0c4          move    a6,*a4(TIME),W
         00007150     0020  
    1166                    
    1167                    ;MAKE SURE WE DO ALL THE SIDE CROWD AT ONCE
    1168 00007160     b681          move    *a4(CHEER1),A1,L
         00007170     0050  
    1169 00007180     0b61          CMPI    wrhside1_cheer1,A1
         00007190 ffffa0ef' 
    1170 000071b0     cb16          JRNE    DO_NEXT_PERSON
    1171 000071c0     0b04          addi    BSIZE,a4
         000071d0     00c0  
    1172 000071e0     ba84          move    *a4(CHEER1),*a4(SCPTR),L
         000071f0     0050  
         00007200     0000  
    1173 00007210     b0c4          move    a6,*a4(TIME),W
         00007220     0020  
    1174 00007230     0b04          addi    BSIZE,a4
         00007240     00c0  
TMS340 COFF Macro Assembler Version 6.10     Tue Oct 24 16:39:11 2023
 Copyright (c) 1985-1991  Texas Instruments Incorporated 

crowd stuff                                                          PAGE   24

    1175 00007250     ba84          move    *a4(CHEER1),*a4(SCPTR),L
         00007260     0050  
         00007270     0000  
    1176 00007280     b0c4          move    a6,*a4(TIME),W
         00007290     0020  
    1177 000072a0     0b04          addi    BSIZE*2,a4
         000072b0     0180  
    1178 000072c0     ba84          move    *a4(CHEER1),*a4(SCPTR),L
         000072d0     0050  
         000072e0     0000  
    1179 000072f0     b0c4          move    a6,*a4(TIME),W
         00007300     0020  
    1180                    
    1181                            ;a5 is the loop counter...gotta dec it any time we add to a4.
    1182 00007310     1485          subk    4,a5
    1183 00007320           DO_NEXT_PERSON
    1184 00007320     0b04          addi    BSIZE,a4
         00007330     00c0  
    1185 00007340     0d85          dsj     a5,wrhloop
         00007350     ffba  
    1186                            
    1187 00007360     0d5f          CALLA   START_FLASHES
         00007370 00000000! 
    1188                    
    1189 00007390     0960          rets
    1190                    
    1191                    
    1192                    ******************************************************************************
    1193                    
    1194                            .end

 No Errors,  No Warnings
