TMS340 COFF Macro Assembler Version 6.10     Mon Oct 30 16:55:24 2023
 Copyright (c) 1985-1991  Texas Instruments Incorporated 

                                                                     PAGE    1

       1                    
       2                            .file   "react3.asm"
       4                            .width  132
       5                            .option b,d,l,t
       6                            .mnolist
       7                    
       8                    
       9                            .include        "macros.h"
      10                            .include        "mproc.equ"             ;Mproc equates
      11                            .include        "display.equ"           ;Display proc equates
      12                            .include        "gsp.equ"               ;Gsp asm equates
      13                            .include        "sys.equ"
      14                            .include        "game.equ"
      15                            .include        "plyr.equ"
      16                            .include        "anim.equ"
      17                            .include        "audit.equ"
      18                            .include        "sound.h"
      19                            .include        "ring.equ"
      20                            .include        "lifebar.h"
      21                    
      22                    
      23                            .REF    CALL_MID_HIT
      24                    
      25                            .REF    CALL_DROP_KICK
      26                            .ref    change_anim1a
      27                            .ref    wres_collis_off
      28                            .ref    block_hit_flail
      29                            .ref    block_hit
      30                            .ref    face_each_other
      31                            .ref    wres_slave_anim
      32                            .ref    set_getup_time
      33                            .ref    hit_damage_pending
      34                            .ref    DO_SCREAM
      35                    
      36                    
      37                    
      38                            .ref    bam_2_body_hit_anim,bam_4_body_hit_anim
      39                            .ref    bam_fall_back_anim
      40                    
      41                            .ref    dnk_fall_back_anim
      42                    
      43                            .ref    hrt_fall_back_anim
      44                            .ref    lex_2_body_hit_anim,lex_4_body_hit_anim
      45                            .ref    lex_fall_back_anim
      46                    
      47                            .ref    rzr_2_body_hit_anim,rzr_4_body_hit_anim
      48                            .ref    rzr_fall_back_anim
      49                    
      50                            .ref    shn_2_body_hit_anim,shn_4_body_hit_anim
      51                            .ref    shn_fall_back_anim
      52                    
      53                            .ref    und_2_body_hit_anim,und_4_body_hit_anim
      54                            .ref    und_fall_back_anim
      55                            .ref    und_2_knee_hit_anim,und_4_knee_hit_anim
      56                    
TMS340 COFF Macro Assembler Version 6.10     Mon Oct 30 16:55:24 2023
 Copyright (c) 1985-1991  Texas Instruments Incorporated 

meters, names, messages, and scores                                  PAGE    2

      57                            .ref    yok_fall_back_anim
      58                    
      59                    
      60                    
      61                    
      62                    
      63                    
      64                    
      65 00000000            SUBR   hit_bigboot
      66                    
      67 00000000     b5a1          move    *a13(PLYRMODE),a1
         00000010     05c0  
      68 00000020     0b41          cmpi    MODE_RUNNING,a1
         00000030     fffe  
      69 00000040     ca62          jrz     hlcdcont2
      70 00000050     0b41          cmpi    MODE_INAIR,a1
         00000060     fffd  
      71 00000070     ca65          jrz     hlcdcont
      72 00000080           hlcdface
      73 00000080     0d5f          CALLA   CALL_FACE_HIT
         00000090 00000000! 
      74                    
      75 000000b0                   GETLIFE
      76 00000100     ca52          jrz     hlcdisdead
      77                    
      78 00000110                   WRSNDX  FLYKICK_L1,FLYKICK_L2
      79 00000450     0d5f          calla   DO_SCREAM
         00000460 00000000! 
      80                    
      81 00000480                   SETMODE NORMAL
      82                    
      83                            .ref    head_hit2_tbl
      84 00000530                   FACE24TBL head_hit2_tbl
      85 00000600     0d5f          calla   change_anim1a
         00000610 00000000! 
      86                    
      87 00000630           hlcdisdead
      88 00000630     0d5f          calla   wres_collis_off
         00000640 00000000! 
      89 00000660     0960          rets
      90                    
      91 00000670           hlcdcont2
      92 00000670     09c0          movi    100,a0
         00000680     0064  
      93                            .ref    RNDPER
      94 00000690     0d5f          calla   RNDPER
         000006a0 00000000! 
      95 000006c0     c39b          jrhi    hlcdface
      96 000006d0           hlcdcont
      97 000006d0     0d5f          CALLA   CALL_DROP_KICK
         000006e0 00000000! 
      98                    
      99 00000700                   WRSNDX  LBOWDROP_L1,LBOWDROP_L2
     100 00000a40                   GETLIFE
     101 00000a90     ca0b          jrz     hlcdskip
TMS340 COFF Macro Assembler Version 6.10     Mon Oct 30 16:55:24 2023
 Copyright (c) 1985-1991  Texas Instruments Incorporated 

meters, names, messages, and scores                                  PAGE    3

     102                    
     103                    
     104                    
     105                    
     106 00000aa0                   SETMODE NORMAL
     107 00000b50           hlcdskip
     108 00000b50     5600          clr     a0
     109 00000b60     b00d          move    a0,*a13(ROLL_POS)
         00000b70     0450  
     110 00000b80     0d5f          calla   set_getup_time
         00000b90 00000000! 
     111                    
     112                            .ref    fall_back_tbl
     113 00000bb0                   FACETBL fall_back_tbl
     114 00000c20     0d5f          calla   change_anim1a
         00000c30 00000000! 
     115                    
     116 00000c50     09e2          movi    [3,0],a2
         00000c60 00030000  
     117 00000c80     b540          move    *a10(OBJ_XPOSINT),a0
         00000c90     0110  
     118 00000ca0     b5a1          move    *a13(OBJ_XPOSINT),a1
         00000cb0     0110  
     119 00000cc0     4801          cmp     a0,a1                   ;offx - defx
     120 00000cd0     c703          jrgt    hlcdfall_right          ;attacker on left
     121 00000ce0     09e2          movi    [-3,0],a2
         00000cf0 fffd0000  
     122 00000d10           hlcdfall_right
     123 00000d10     b24d          move    a2,*a13(OBJ_XVEL),L
         00000d20     02d0  
     124                    
     125                    
     126 00000d30     0d5f          calla   wres_collis_off
         00000d40 00000000! 
     127 00000d60     0960          rets
     128                    
     129 00000d70           hlcdno_hit
     130 00000d70     57ce          clr     a14
     131 00000d80     058e          move    a14,@hit_damage_pending
         00000d90 00000000! 
     132 00000db0     0d5f          calla   wres_collis_off
         00000dc0 00000000! 
     133 00000de0     0960          rets
     134                    
     135                    
     136 00000df0            SUBR   hit_knee
     137                    
     138                    
     139 00000df0     b5a1          move    *a13(PLYRMODE),a1
         00000e00     05c0  
     140 00000e10     0b41          cmpi    MODE_BLOCK,a1
         00000e20     fff8  
     141 00000e30     cb04          jrnz    adranoblock
     142                    
     143 00000e40     0d5f          calla   block_hit
TMS340 COFF Macro Assembler Version 6.10     Mon Oct 30 16:55:24 2023
 Copyright (c) 1985-1991  Texas Instruments Incorporated 

meters, names, messages, and scores                                  PAGE    4

         00000e50 00000000! 
     144 00000e70     0960          rets
     145                    
     146 00000e80           adranoblock
     147                    
     148 00000e80     0d5f          CALLA   CALL_MID_HIT
         00000e90 00000000! 
     149                    
     150                    
     151 00000eb0                   GETLIFE
     152 00000f00     ca54          jrz     adraisdead
     153                    
     154 00000f10                   WRSNDX  KICK_L1,KICK_L2
     155                    
     156                    
     157 00001250                   SETMODE NORMAL
     158                    
     159 00001300                   FACE24TBL knee_hit_tbl
     160 000013d0           adracont
     161 000013d0     0d5f          calla   change_anim1a
         000013e0 00000000! 
     162                    
     163 00001400     b740          move    *a10(OBJ_XVEL),a0,L             ;slow down doink's
         00001410     02d0  
     164 00001420     2ba0          sra     3,a0                            ;x_vel after collis
     165 00001430     b20a          move    a0,*a10(OBJ_XVEL),L
         00001440     02d0  
     166                    
     167 00001450           adraisdead
     168 00001450     0d5f          calla   wres_collis_off
         00001460 00000000! 
     169 00001480     0960          rets
     170                    
     171 00001490            SUBR   knee_hit_tbl
     172                            .ref    hrt_2_knee_hit_anim,hrt_4_knee_hit_anim
     173                            .ref    yok_2_knee_hit_anim,yok_4_knee_hit_anim
     174                            .ref    rzr_2_knee_hit_anim,rzr_4_knee_hit_anim
     175                            .ref    und_2_knee_hit_anim,und_4_knee_hit_anim 
     176                            .ref    shn_2_knee_hit_anim,shn_4_knee_hit_anim 
     177                            .ref    bam_2_knee_hit_anim,bam_4_knee_hit_anim 
     178                            .ref    dnk_2_knee_hit_anim
     179                            .ref    lex_2_knee_hit_anim,lex_4_knee_hit_anim 
     180                    
     181 00001490 00000000!         .long   hrt_2_knee_hit_anim,hrt_4_knee_hit_anim         ;0 Bret Hart
     182 000014d0 00000000!         .long   rzr_2_knee_hit_anim,rzr_4_knee_hit_anim         ;1 Razor Ramon
     183 00001510 00000000!         .long   und_2_knee_hit_anim,und_4_knee_hit_anim         ;2 Undertaker
     184 00001550 00000000!         .long   yok_2_knee_hit_anim,yok_4_knee_hit_anim         ;3 Yokozuna
     185 00001590 00000000!         .long   shn_2_knee_hit_anim,shn_4_knee_hit_anim         ;4 Shawn Michaels
     186 000015d0 00000000!         .long   bam_2_knee_hit_anim,bam_4_knee_hit_anim         ;5 Bam Bam
     187 00001610 00000000!         .long   dnk_2_knee_hit_anim,dnk_2_knee_hit_anim         ;6 Doink
     188 00001650 00000000          .long   0,0                                             ;7 spare
     189 00001690 00000000!         .long   lex_2_knee_hit_anim,lex_4_knee_hit_anim         ;8 Lex Luger
     190 000016d0 00000000          .long   0,0                                             ;9 Referee
     191                    
     192                    
TMS340 COFF Macro Assembler Version 6.10     Mon Oct 30 16:55:24 2023
 Copyright (c) 1985-1991  Texas Instruments Incorporated 

meters, names, messages, and scores                                  PAGE    5

     193                    
     194 00001710            SUBR   hit_headknees
     195                    
     196 00001710                   WRSNDX  KICK_L1,KICK_L2
     197                    
     198 00001a50     09e0          movi    40000h,a0
         00001a60 00040000  
     199 00001a80     b20d          move    a0,*a13(OBJ_YVEL),L
         00001a90     02f0  
     200                    
     201 00001aa0                   FACETBL nrijknee_hit
     202 00001b10     0d5f          calla   change_anim1a
         00001b20 00000000! 
     203                    
     204 00001b40     0d5f          calla   wres_collis_off
         00001b50 00000000! 
     205 00001b70     0960          rets
     206                    
     207 00001b80           nrijknee_hit
     208                            .ref    dnk_quick_knee_hit_anim
     209                            .ref    hrt_quick_knee_hit_anim
     210                            .ref    yok_quick_knee_hit_anim
     211                            .ref    bam_quick_knee_hit_anim
     212                            .ref    und_quick_knee_hit_anim
     213                            .ref    rzr_quick_knee_hit_anim
     214                            .ref    shn_quick_knee_hit_anim
     215                            .ref    lex_quick_knee_hit_anim
     216                    
     217 00001b80 00000000!         .long   hrt_quick_knee_hit_anim ;0 Bret Hart
     218 00001ba0 00000000!         .long   rzr_quick_knee_hit_anim ;1 Razor Ramon
     219 00001bc0 00000000!         .long   und_quick_knee_hit_anim ;2 Undertaker
     220 00001be0 00000000!         .long   yok_quick_knee_hit_anim ;3 Yokozuna
     221 00001c00 00000000!         .long   shn_quick_knee_hit_anim ;4 Shawn Michaels
     222 00001c20 00000000!         .long   bam_quick_knee_hit_anim ;5 Bam Bam
     223 00001c40 00000000!         .long   dnk_quick_knee_hit_anim ;6 Doink
     224 00001c60 00000000          .long   0                       ;7 spare
     225 00001c80 00000000!         .long   lex_quick_knee_hit_anim ;8 Lex Luger
     226 00001ca0 00000000          .long   0                                               ;9 Referee
     227                    
     228                    
     229 00001cc0            SUBR   hit_boxpunch
     230                    
     231 00001cc0     b5a1          move    *a13(PLYRMODE),a1
         00001cd0     05c0  
     232 00001ce0     0b41          cmpi    MODE_BLOCK,a1
         00001cf0     fff8  
     233 00001d00     cb04          jrnz    tvpknoblock
     234                    
     235                    
     236 00001d10     0d5f          calla   block_hit_flail
         00001d20 00000000! 
     237 00001d40     0960          rets
     238                    
     239 00001d50           tvpknoblock
     240                    
TMS340 COFF Macro Assembler Version 6.10     Mon Oct 30 16:55:24 2023
 Copyright (c) 1985-1991  Texas Instruments Incorporated 

meters, names, messages, and scores                                  PAGE    6

     241                    
     242                            .ref    CALL_FACE_HIT
     243 00001d50     0d5f          CALLA   CALL_FACE_HIT
         00001d60 00000000! 
     244                    
     245                    
     246 00001d80                   WRSNDX  FLYKICK_L1,FLYKICK_L2
     247 000020c0                   GETLIFE
     248 00002110     ca0b          jrz     tvpkskip
     249                    
     250                    
     251 00002120                   SETMODE NORMAL
     252 000021d0           tvpkskip
     253 000021d0     09c0          movi    5*TSEC,a0
         000021e0     0109  
     254 000021f0     b00d          move    a0,*a13(GETUP_TIME)
         00002200     0460  
     255                    
     256 00002210                   FACETBL fall_back_tbl
     257 00002280     0d5f          calla   change_anim1a
         00002290 00000000! 
     258                    
     259 000022b0     09e2          movi    [4,0],a2
         000022c0 00040000  
     260 000022e0     b540          move    *a10(OBJ_XPOSINT),a0
         000022f0     0110  
     261 00002300     b5a1          move    *a13(OBJ_XPOSINT),a1
         00002310     0110  
     262 00002320     4801          cmp     a0,a1                   ;offx - defx
     263 00002330     c701          jrgt    tvpkgo_rgt                      ;attacker on left
     264 00002340     03a2          neg     a2
     265 00002350           tvpkgo_rgt
     266 00002350     b24d          move    a2,*a13(OBJ_XVEL),L
         00002360     02d0  
     267                    
     268 00002370           tvpkisdead
     269 00002370     0d5f          calla   wres_collis_off
         00002380 00000000! 
     270 000023a0     0960          rets
     271                    
     272                    
     273                    
     274                            .end

 No Errors,  No Warnings
