TMS340 COFF Macro Assembler Version 6.10     Mon Oct 30 16:55:16 2023
 Copyright (c) 1985-1991  Texas Instruments Incorporated 

                                                                     PAGE    1

       1                    
       2                            .file   "yoko.asm"
       4                            .width  132
       5                            .option b,d,l,t
       6                            .mnolist
       7                    
       8                    
       9                            .include        "macros.h"
      10                            .include        "jjxm.h"
      11                            .include        "mproc.equ"             ;Mproc equates
      12                            .include        "display.equ"           ;Display proc equates
      13                            .include        "gsp.equ"               ;Gsp asm equates
      14                            .include        "sys.equ"
      15                            .include        "game.equ"
      16                            .include        "plyr.equ"
      17                            .include        "anim.equ"
      18                            .include        "audit.equ"
      19                            .include        "sound.h"
      20                            .include        "ring.equ"
      21                            .include        "lifebar.h"
      22                            .include        "damage.equ"
      23                    
      24                    
      25                    
      26                            .ref    change_anim1a,change_anim2a,bounce_off_ropes
      27                            .ref    check_secret_moves,climb_turnbuckle,raisearm_check
      28                            .ref    execute_walk,get_punch_dtime,get_opp_plyrmode
      29                            .ref    keep_attached,change_anim1,mode_dead,round_award
      30                            .ref    get_opp_process,ck_ignore,do_taunt,process_ptrs
      31                            .ref    FIND_AND_KILL_ENDLESS,JUMP_ROPES,CHECK_COMBO_GO
      32                            .ref    yok_combo_jabs_anim,yok_combo_kick_anim,set_raisearm_bit
      33                            .ref    BLOCK_WOOSH,drone_change_back,ck_teammate_pin
      34                            .ref    CLIMB_ROPES,ADD_IF_SILENT,master_keep_attached
      35                            .ref    change_anim2,can_pin
      36                            .ref    blocking_off,std_taunt,std_walk_fast
      37                            .ref    hyper_speed_on
      38                            .ref    in_finish_move
      39                            .ref    p1rounds,p2rounds
      40                            .if NUM_YOKO_FINISHES
      41                            .ref    yok_finish1_move
      42                            .if NUM_YOKO_FINISHES > 1
      43                            .ref    yok_finish2_move
      44                            .endif
      45                            .endif
      46                    
      47                    
      48                            .ref    yok_2_jabs_anim
      49                            .ref    yok_4_jabs_anim
      50                            .ref    yok_4_uppercut_anim
      51                            .ref    yok_2_slap2_anim
      52                            .ref    yok_4_slap2_anim
      53                            .ref    yok_2_superkick_anim
      54                            .ref    yok_4_superkick_anim
      55                            .ref    yok_2_grabfling_anim
      56                            .ref    yok_4_grabfling_anim
TMS340 COFF Macro Assembler Version 6.10     Mon Oct 30 16:55:16 2023
 Copyright (c) 1985-1991  Texas Instruments Incorporated 

meters, names, messages, and scores                                  PAGE    2

      57                    
      58                            .ref    DO_REVERSAL,PCNT
      59                            .ref    DO_REVERSAL_MESS
      60                    
      61                            .ref    yok_3_head_hold2_anim
      62                            .ref    yok_3_head_hold_anim
      63                            .ref    wres_slave_anim
      64                            .ref    yok_zip_anim
      65                            .ref    start_run_anim
      66                    
      67                            .ref    yok_stand2_anim,yok_stand8_anim
      68                            .ref    yok_scissor_anim
      69                            .ref    yok_stand4_anim,yok_stand6_anim
      70                            .ref    yok_torso2_anim,yok_torso8_anim
      71                            .ref    yok_torso4_anim,yok_torso6_anim
      72                    
      73                            .ref    yok_2_to_4_turn_anim,yok_8_to_6_turn_anim       ;stand
      74                            .ref    yok_4_to_2_turn_anim,yok_6_to_8_turn_anim
      75                            .ref    yok_4_to_6_turn_anim,yok_6_to_4_turn_anim
      76                            .ref    yok_2_to_8_turn_anim,yok_8_to_2_turn_anim
      77                            .ref    yok_4_to_8_turn_anim,yok_6_to_2_turn_anim
      78                            .ref    yok_2_to_6_turn_anim,yok_8_to_4_turn_anim
      79                    
      80                            .ref    yok_2_to_4_turn2_anim,yok_8_to_6_turn2_anim     ;torso
      81                            .ref    yok_4_to_2_turn2_anim,yok_6_to_8_turn2_anim
      82                            .ref    yok_4_to_6_turn2_anim,yok_6_to_4_turn2_anim
      83                            .ref    yok_2_to_8_turn2_anim,yok_8_to_2_turn2_anim
      84                            .ref    yok_4_to_8_turn2_anim,yok_6_to_2_turn2_anim
      85                            .ref    yok_2_to_6_turn2_anim,yok_8_to_4_turn2_anim
      86                    
      87                            .ref    yok_walk1_f2_anim,yok_walk2_f2_anim,yok_walk4_f2_anim
      88                            .ref    yok_walk5_f2_anim,yok_walk6_f2_anim,yok_walk8_f2_anim
      89                    
      90                            .ref    yok_walk1_f4_anim,yok_walk2_f4_anim,yok_walk4_f4_anim
      91                            .ref    yok_walk5_f4_anim,yok_walk6_f4_anim,yok_walk8_f4_anim
      92                    
      93                            .ref    yok_run2_anim
      94                    
      95                            .ref    yok_climb_up_anim,yok_climb_down_anim
      96                            .ref    yok_3_butt_drop_anim,yok_tbukl_buttdrop_anim
      97                    
      98                            .ref    yok_2_punch_anim,yok_4_punch_anim
      99                            .ref    yok_4_push_anim
     100                            .ref    yok_2_lbowdrop_anim,yok_4_lbowdrop_anim
     101                            .ref    yok_2_kick_anim,yok_4_kick_anim
     102                            .ref    yok_2_stomp_anim,yok_4_stomp_anim
     103                            .ref    yok_2_knee_anim,yok_4_knee_anim
     104                            .ref    yok_2_gut_push_anim,yok_4_gut_push_anim
     105                            .ref    yok_4_losebal_anim
     106                    
     107                            .ref    yok_4_block_anim
     108                    
     109                            .ref    yok_2_head_hit_anim,yok_4_head_hit_anim
     110                            .ref    yok_2_body_hit_anim,yok_4_body_hit_anim
     111                            .ref    yok_2_raise_arm_anim,yok_4_raise_arm_anim
TMS340 COFF Macro Assembler Version 6.10     Mon Oct 30 16:55:16 2023
 Copyright (c) 1985-1991  Texas Instruments Incorporated 

meters, names, messages, and scores                                  PAGE    3

     112                            .ref    yok_2_pin_anim,yok_4_pin_anim
     113                    
     114                            .ref    yok_graboh_anim
     115                            .ref    yok_2_hiptoss_anim
     116                            .ref    yok_4_hiptoss_anim
     117                            .ref    yok_2_hiptoss2_anim
     118                            .ref    yok_4_hiptoss2_anim
     119                            .ref    yok_vsuplex_anim
     120                    
     121                            .ref    yok_spinslam_anim
     122                            .ref    yok_heldheadbutt_rpt_anim
     123                    
     124                            .ref    yok_2_hair_pickup_anim
     125                            .ref    yok_4_salt_anim,yok_3_head_held_stand_anim
     126                            .ref    yok_overhd_slam_anim,yok_2_run_slap_anim
     127                            .ref    yok_4_hair_pickup_anim,yok_2_salt_anim
     128                            .ref    yok_stndholdoh_anim,yok_4_run_slap_anim
     129                            .ref    yok_fall_back_anim,yok_holdoh_anim
     130                    
     131                            .ref    BONUS_MESS
     132                    
     133                    
     134                    
     135                    
     136 00000000           yok_secret_moves
     137 00000000 00001910'         .long   ingtcharge_salt ;must have this one
     138 00000020 000014d0'         .long   ingtneck_grab
     139 00000040 00000d30'         .long   ingtgrab_fling
     140 00000060 00000690'         .long   ingthip_toss
     141 00000080 00000ba0'         .long   ingtgrab_fling2
     142 000000a0 00000bf0'         .long   ingthip_toss2
     143 000000c0 00000260'         .long   ingtscissors
     144 000000e0 00001f00'         .long   ingtgut_push
     145 00000100 00002340'         .long   ingtjabs
     146 00000120 00000000          .long   0
     147                    
     148                    
     149 00000140            SUBR   yok_smove_table
     150 00000140 00004b10'         .long   yok_hdhold_combo1
     151 00000160 00003fc0'         .long   yok_hdhold_scissor
     152 00000180 00003460'         .long   yok_hdhold_suplex
     153 000001a0 00005cf0'         .long   yok_salt_throw
     154 000001c0 00002760'         .long   yok_grab_toss_air
     155 000001e0 00005400'         .long   yok_hdhold_combo2
     156 00000200 00000000!         .long   std_walk_fast
     157 00000220 00000000!         .long   std_taunt
     158                    
     159                            .if NUM_YOKO_FINISHES
     160                            .long   yok_finish_move1
     161                            .endif
     162                            .if NUM_YOKO_FINISHES > 1
     163                            .long   yok_finish_move2
     164                            .endif
     165 00000240 00000000          .long   0
     166                    
TMS340 COFF Macro Assembler Version 6.10     Mon Oct 30 16:55:16 2023
 Copyright (c) 1985-1991  Texas Instruments Incorporated 

meters, names, messages, and scores                                  PAGE    4

     167 00000260           ingtscissors
     168 00000260     0100          .word   B_SKICK,                J_ALL
     169 00000280     0008          .word   J_TOWARD,               J_REAL_LR
     170 000002a0     0008          .word   J_TOWARD,               J_REAL_LR
     171 000002c0     8020          .word   8000h | 32              ;max
     172 000002d0 000002f0'         .long   ingtscrt_scis
     173                    
     174 000002f0           ingtscrt_scis
     175 000002f0     b5a0          move    *a13(ANIMODE),a0
         00000300     0660  
     176 00000310     1fa0          btst    MODE_UNINT_BIT,a0
     177 00000320     cb35          jrnz    ingtrets
     178 00000330     b5a0          move    *a13(PLYRMODE),a0
         00000340     05c0  
     179 00000350     0b40          CMPI    MODE_HEADHOLD,a0
         00000360     ffef  
     180 00000370     ca30          jrz     ingtrets
     181                    
     182 00000380     0d5f          calla   get_opp_plyrmode
         00000390 00000000! 
     183 000003b0     0b40          cmpi    MODE_ONGROUND,a0
         000003c0     fffb  
     184 000003d0     ca2a          jreq    ingtrets
     185 000003e0     0b40          cmpi    MODE_DEAD,a0
         000003f0     fff6  
     186 00000400     ca27          jreq    ingtrets
     187                    
     188                            ;don't do it if opponent is behind you
     189 00000410     0d5f          calla   ck_ignore
         00000420 00000000! 
     190 00000440     c823          jrc     ingtrets
     191                            
     192 00000450     0d5f          CALLA   FIND_AND_KILL_ENDLESS
         00000460 00000000! 
     193 00000480     09e0          movi    yok_scissor_anim,a0
         00000490 00000000! 
     194 000004b0     0d5f          calla   change_anim1a
         000004c0 00000000! 
     195 000004e0                   WRSND   W_YOKO,GRABFLING_T1,GRABFLING_T2
     196 00000680     0960  ingtrets        rets
     197                    
     198                    
     199 00000690           ingthip_toss
     200                    
     201 00000690     0010          .word   B_PUNCH,                J_ALL
     202 000006b0     0004          .word   J_AWAY,         J_REAL_LR
     203 000006d0     0004          .word   J_AWAY,         J_REAL_LR
     204 000006f0     8020          .word   8000h | 32              ;max
     205 00000700 00000720'         .long   ingtscrt_hiptoss
     206                    
     207 00000720           ingtscrt_hiptoss
     208 00000720     b5a0          move    *a13(ANIMODE),a0
         00000730     0660  
     209 00000740     1fa0          btst    MODE_UNINT_BIT,a0
     210 00000750     cb00          jrnz    ingtout
TMS340 COFF Macro Assembler Version 6.10     Mon Oct 30 16:55:16 2023
 Copyright (c) 1985-1991  Texas Instruments Incorporated 

meters, names, messages, and scores                                  PAGE    5

         00000760     01bc  
     211                    
     212 00000770     0d5f          calla   get_opp_plyrmode
         00000780 00000000! 
     213 000007a0     0b40          cmpi    MODE_ONGROUND,a0
         000007b0     fffb  
     214 000007c0     ca00          jrz     ingtout
         000007d0     01b5  
     215 000007e0     0b40          cmpi    MODE_DEAD,a0
         000007f0     fff6  
     216 00000800     ca00          jrz     ingtout
         00000810     01b1  
     217 00000820     0b40          cmpi    MODE_HEADHELD,a0
         00000830     ffec  
     218 00000840     ca00          jrz     ingtout
         00000850     01ad  
     219 00000860     0b40          cmpi    MODE_INAIR,a0
         00000870     fffd  
     220 00000880     ca09          jrz     ingtdoit
     221 00000890     0b40          cmpi    MODE_INAIR2,a0
         000008a0     ffea  
     222 000008b0     ca06          jrz     ingtdoit
     223                    
     224 000008c0     b5a0          move    *a13(CLOSEST_DIST),a0
         000008d0     0360  
     225 000008e0     0b40          cmpi    70h,a0
         000008f0     ff8f  
     226 00000900     c700          jrgt    ingtout
         00000910     01a1  
     227                    
     228 00000920           ingtdoit
     229 00000920                   FACE24  yok,hiptoss_anim
     230 000009c0     0d5f          calla   change_anim1a
         000009d0 00000000! 
     231                    
     232 000009f0                   WRSND   W_YOKO,HIPTOSS_T1,PUNCH_T2
     233                    
     234 00000b90     0960          rets
     235                    
     236                    
     237 00000ba0           ingtgrab_fling2
     238 00000ba0     0044          .word   B_SPUNCH | J_AWAY,      J_REAL_LR | J_UP | J_DOWN
     239 00000bc0     800a          .word   8000h | 10              ;max
     240 00000bd0 00000c40'         .long   ingtscrt_grabfling2
     241                    
     242 00000bf0           ingthip_toss2
     243 00000bf0     0014          .word   B_PUNCH | J_AWAY,       J_REAL_LR | J_UP | J_DOWN
     244 00000c10     800a          .word   8000h | 10              ;max
     245 00000c20 00000c40'         .long   ingtscrt_grabfling2
     246                    
     247 00000c40           ingtscrt_grabfling2
     248 00000c40     b5a0          move    *a13(ANIMODE),a0
         00000c50     0660  
     249 00000c60     1fa0          btst    MODE_UNINT_BIT,a0
     250 00000c70     cb00          jrnz    ingtout
TMS340 COFF Macro Assembler Version 6.10     Mon Oct 30 16:55:16 2023
 Copyright (c) 1985-1991  Texas Instruments Incorporated 

meters, names, messages, and scores                                  PAGE    6

         00000c80     016a  
     251                    
     252 00000c90     0d5f          calla   get_opp_plyrmode
         00000ca0 00000000! 
     253 00000cc0     0b40          cmpi    MODE_BOUNCING,a0
         00000cd0     fffa  
     254 00000ce0     ca1b          jrz     ingtyes
     255 00000cf0     0b40          cmpi    MODE_RUNNING,a0
         00000d00     fffe  
     256 00000d10     ca18          jrz     ingtyes
     257 00000d20     0960          rets
     258                    
     259                    
     260 00000d30           ingtgrab_fling
     261                    
     262 00000d30     0040          .word   B_SPUNCH,               J_ALL
     263 00000d50     0004          .word   J_AWAY,         J_REAL_LR
     264 00000d70     0004          .word   J_AWAY,         J_REAL_LR
     265 00000d90     8020          .word   8000h | 32              ;max
     266 00000da0 00000dc0'         .long   ingtscrt_grabfling
     267                    
     268 00000dc0           ingtscrt_grabfling
     269                    
     270                    
     271 00000dc0     b5a0          move    *a13(ANIMODE),a0
         00000dd0     0660  
     272 00000de0     1fa0          btst    MODE_UNINT_BIT,a0
     273 00000df0     cb00          jrnz    ingtout
         00000e00     0152  
     274                    
     275 00000e10     0d5f          calla   get_opp_plyrmode
         00000e20 00000000! 
     276 00000e40     0b40          cmpi    MODE_BOUNCING,a0
         00000e50     fffa  
     277 00000e60     ca03          jrz     ingtyes
     278 00000e70     0b40          cmpi    MODE_RUNNING,a0
         00000e80     fffe  
     279 00000e90     cb28          jrnz    ingtnope
     280 00000ea0           ingtyes
     281 00000ea0                   FACE24  yok,hiptoss_anim
     282 00000f40     0d5f          calla   change_anim1a
         00000f50 00000000! 
     283                    
     284 00000f70                   WRSND   W_YOKO,HIPTOSS_T1,PUNCH_T2
     285 00001110     0960          rets
     286                    
     287 00001120           ingtnope
     288 00001120     0d5f          calla   get_opp_plyrmode
         00001130 00000000! 
     289 00001150     0b40          cmpi    MODE_DEAD,a0
         00001160     fff6  
     290 00001170     ca00          jrz     ingtout
         00001180     011a  
     291 00001190     0b40          cmpi    MODE_HEADHELD,a0
         000011a0     ffec  
TMS340 COFF Macro Assembler Version 6.10     Mon Oct 30 16:55:16 2023
 Copyright (c) 1985-1991  Texas Instruments Incorporated 

meters, names, messages, and scores                                  PAGE    7

     292 000011b0     ca00          jrz     ingtout
         000011c0     0116  
     293 000011d0     0b40          cmpi    MODE_ONGROUND,a0
         000011e0     fffb  
     294 000011f0     ca00          jrz     ingtout
         00001200     0112  
     295 00001210     0b40          cmpi    MODE_ATTACHED,a0
         00001220     fffc  
     296 00001230     ca00          jrz     ingtout
         00001240     010e  
     297                    
     298                    
     299 00001250                   FACE24  yok,grabfling_anim
     300 000012f0     0d5f          calla   change_anim1a
         00001300 00000000! 
     301                    
     302 00001320                   WRSND   W_YOKO,GRABFLING_T1,PUNCH_T2
     303 000014c0     0960          rets
     304                    
     305                    
     306 000014d0           ingtneck_grab
     307 000014d0     0040          .word   B_SPUNCH,               J_ALL
     308 000014f0     0008          .word   J_TOWARD,               J_REAL_LR
     309 00001510     0008          .word   J_TOWARD,               J_REAL_LR
     310 00001530     801e          .word   8000h | 30              ;max
     311 00001540 00001560'         .long   ingtscrt_neck
     312                    
     313 00001560           ingtscrt_neck
     314 00001560     b5a0          move    *a13(ANIMODE),a0
         00001570     0660  
     315 00001580     1fa0          btst    MODE_UNINT_BIT,a0
     316 00001590     cb00          jrnz    ingtout
         000015a0     00d8  
     317                    
     318 000015b0     0d5f          calla   get_opp_plyrmode
         000015c0 00000000! 
     319 000015e0     0b40          cmpi    MODE_ONGROUND,a0
         000015f0     fffb  
     320 00001600     ca00          jrz     ingtout
         00001610     00d1  
     321 00001620     0b40          cmpi    MODE_DEAD,a0
         00001630     fff6  
     322 00001640     ca00          jrz     ingtout
         00001650     00cd  
     323 00001660     0b40          cmpi    MODE_HEADHELD,a0
         00001670     ffec  
     324 00001680     ca00          jrz     ingtout
         00001690     00c9  
     325 000016a0     0b40          cmpi    MODE_ATTACHED,a0
         000016b0     fffc  
     326 000016c0     ca00          jrz     ingtout
         000016d0     00c5  
     327                    
     328 000016e0     b7ae          move    *a13(LAST_HEADHOLD),a14,L
         000016f0     0cd0  
TMS340 COFF Macro Assembler Version 6.10     Mon Oct 30 16:55:16 2023
 Copyright (c) 1985-1991  Texas Instruments Incorporated 

meters, names, messages, and scores                                  PAGE    8

     329 00001700     07a0          move    @PCNT,a0,L
         00001710 00000000! 
     330 00001730     45c0          sub     a14,a0
     331 00001740     0b40          cmpi    2*60,a0
         00001750     ff87  
     332 00001760     c507          jrge    ingtok2a
     333                    
     334                            .ref    yok_3_fake_hold_anim
     335 00001770     09e0          movi    yok_3_fake_hold_anim,a0
         00001780 00000000! 
     336 000017a0     0d5f          calla   change_anim1a
         000017b0 00000000! 
     337 000017d0     0960          rets
     338                    
     339 000017e0           ingtok2a
     340 000017e0     b5a1          move    *a13(CLOSEST_XDIST),a1
         000017f0     0370  
     341 00001800     0b41          cmpi    80,a1
         00001810     ffaf  
     342 00001820     c707          jrgt    ingtstd_grab
     343                    
     344 00001830     09e0          movi    yok_3_head_hold2_anim,a0
         00001840 00000000! 
     345 00001860     0d5f          calla   change_anim1a
         00001870 00000000! 
     346 00001890     0960          rets
     347                    
     348 000018a0           ingtstd_grab
     349 000018a0     09e0          movi    yok_3_head_hold_anim,a0
         000018b0 00000000! 
     350 000018d0     0d5f          calla   change_anim1a
         000018e0 00000000! 
     351 00001900     0960          rets
     352                    
     353                    
     354 00001910           ingtcharge_salt
     355                    
     356 00001910     b5a0          move    *a13(BUT_VAL_UP),a0
         00001920     0bb0  
     357 00001930     1fe0          btst    PLAYER_PUNCH_BIT,a0
     358 00001940     ca0f          jrz     ingtno_punch
     359                    
     360 00001950     b5a0          move    *a13(PLYRNUM),a0
         00001960     0580  
     361 00001970     0d5f          calla   get_punch_dtime
         00001980 00000000! 
     362 000019a0     0b40          cmpi    85,a0                   ;> min?
         000019b0     ffaa  
     363 000019c0     c407          jrlt    ingtno_punch
     364                    
     365 000019d0     0d5f          CALLA   FIND_AND_KILL_ENDLESS
         000019e0 00000000! 
     366 00001a00     0d3f          callr   ingtscrt_salt
         00001a10     0004  
     367 00001a20     0de0          setc
TMS340 COFF Macro Assembler Version 6.10     Mon Oct 30 16:55:16 2023
 Copyright (c) 1985-1991  Texas Instruments Incorporated 

meters, names, messages, and scores                                  PAGE    9

     368 00001a30     0960          rets
     369                    
     370 00001a40           ingtno_punch
     371 00001a40     0320          clrc
     372 00001a50     0960          rets
     373                    
     374 00001a60           ingtscrt_salt
     375 00001a60     b5a0          move    *a13(PLYRMODE),a0
         00001a70     05c0  
     376 00001a80     0b40          cmpi    MODE_HEADHELD,a0
         00001a90     ffec  
     377 00001aa0     ca00          jrz     ingtout
         00001ab0     0087  
     378 00001ac0     0b40          cmpi    MODE_HEADHOLD,a0
         00001ad0     ffef  
     379 00001ae0     ca00          jrz     ingtout
         00001af0     0083  
     380                    
     381 00001b00     b5a0          move    *a13(ANIMODE),a0
         00001b10     0660  
     382 00001b20     1fa0          btst    MODE_UNINT_BIT,a0
     383 00001b30     cb7f          jrnz    ingtout
     384                    
     385 00001b40     0d5f          calla   get_opp_plyrmode
         00001b50 00000000! 
     386 00001b70     0b40          cmpi    MODE_ATTACHED,a0
         00001b80     fffc  
     387 00001b90     ca79          jrz     ingtout
     388                    
     389 00001ba0                   FACE24  yok,salt_anim
     390 00001c40     0d5f          calla   change_anim1a
         00001c50 00000000! 
     391 00001c70                   WRSND   W_YOKO,HDBUTT_T1,HDBUTT_T2
     392                    
     393 00001e10     5600          clr     a0
     394 00001e20     b00d          move    a0,*a13(RUN_TIME)
         00001e30     07b0  
     395                    
     396 00001e40                   SETMODE NORMAL
     397                    
     398 00001ef0     0960          rets
     399                    
     400                    
     401 00001f00           ingtgut_push
     402 00001f00     0010          .word   B_PUNCH,                J_ALL
     403 00001f20     0008          .word   J_TOWARD,               J_REAL_LR
     404 00001f40     0008          .word   J_TOWARD,               J_REAL_LR
     405 00001f60     8028          .word   8000h | 40              ;max
     406 00001f70 00001f90'         .long   ingtscrt_gut_push
     407                    
     408 00001f90           ingtscrt_gut_push
     409                    
     410 00001f90     b5a0          move    *a13(ANIMODE),a0
         00001fa0     0660  
     411 00001fb0     1fa0          btst    MODE_UNINT_BIT,a0
TMS340 COFF Macro Assembler Version 6.10     Mon Oct 30 16:55:16 2023
 Copyright (c) 1985-1991  Texas Instruments Incorporated 

meters, names, messages, and scores                                  PAGE   10

     412 00001fc0     cb36          jrnz    ingtout
     413                     
     414 00001fd0     0d5f          calla   get_opp_plyrmode
         00001fe0 00000000! 
     415 00002000     0b40          cmpi    MODE_ONGROUND,a0
         00002010     fffb  
     416 00002020     ca30          jrz     ingtout
     417 00002030     0b40          cmpi    MODE_DEAD,a0
         00002040     fff6  
     418 00002050     ca2d          jrz     ingtout
     419 00002060     0b40          cmpi    MODE_HEADHELD,a0
         00002070     ffec  
     420 00002080     ca2a          jrz     ingtout
     421 00002090     0b40          cmpi    MODE_ATTACHED,a0
         000020a0     fffc  
     422 000020b0     ca27          jrz     ingtout
     423                     
     424 000020c0                   FACE24  yok,gut_push_anim
     425 00002160     0d5f          calla   change_anim1a
         00002170 00000000! 
     426 00002190                   WRSND   W_YOKO,GRABTHROW_T1,GRABTHROW_T2
     427 00002330           ingtout
     428 00002330     0960          rets
     429                    
     430                    
     431                    
     432 00002340           ingtjabs
     433 00002340     0010          .word   B_PUNCH,                J_ALL
     434 00002360     0008          .word   J_TOWARD,               J_REAL_LR
     435 00002380     000a          .word   J_DOWN_TOWARD,          J_REAL_LR
     436 000023a0     0002          .word   J_DOWN,                 J_REAL_LR
     437 000023c0     8032          .word   8000h | 50              ;max
     438 000023d0 000023f0'         .long   ingtscrt_jabs
     439                    
     440 000023f0           ingtscrt_jabs
     441 000023f0     b5a0          move    *a13(ANIMODE),a0
         00002400     0660  
     442 00002410     1fa0          btst    MODE_UNINT_BIT,a0
     443 00002420     cbf0          jrnz    ingtout
     444                    
     445 00002430     b5a0          move    *a13(PLYRMODE),a0
         00002440     05c0  
     446 00002450     0b40          cmpi    MODE_ONTURNBKL,a0
         00002460     fff9  
     447 00002470     caeb          jrz     ingtout
     448                    
     449 00002480     0d5f          calla   get_opp_plyrmode
         00002490 00000000! 
     450 000024b0     0b40          cmpi    MODE_HEADHELD,a0
         000024c0     ffec  
     451 000024d0     cae5          jrz     ingtout
     452                    
     453 000024e0                   FACE24  yok,jabs_anim
     454 00002580     0d5f          calla   change_anim1a
         00002590 00000000! 
TMS340 COFF Macro Assembler Version 6.10     Mon Oct 30 16:55:16 2023
 Copyright (c) 1985-1991  Texas Instruments Incorporated 

meters, names, messages, and scores                                  PAGE   11

     455                    
     456 000025b0                   WRSND   W_YOKO,HDBUTT_T1,HDBUTT_T2
     457                    
     458 00002750     0960          rets
     459                    
     460                            .if NUM_YOKO_FINISHES
     461                     SUBRP  yok_finish_move1
     462                    
     463                    whndTIMEOUT     .equ    TSEC
     464                    
     465                    whndend_wait
     466                            SLEEP           TSEC/4
     467                            move            @p1rounds,a0                    ; Get player 1 rounds
     468                            move            @p2rounds,a1                    ; Get player 2 rounds
     469                            or              a1,a0                           ; Put em together
     470                            cmpi            2,a0                            ; Anybody got 2?
     471                            jrlt            whndend_wait                    ; br = no
     472                    
     473                    whndreset
     474                            clr             a11
     475                            move            a11,@in_finish_move
     476                            SLEEPK          1
     477                            WAITSWITCH_DWN  J_UP,0,whndreset
     478                            movi            whndTIMEOUT,a11
     479                            move            a11,@in_finish_move
     480                            WAITSWITCH_DWN  J_DOWN,0,whndreset
     481                            WAITSWITCH_DWN  J_TOWARD,J_DOWN|J_UP,whndreset
     482                            WAITSWITCH_DWN  J_TOWARD,J_DOWN|J_UP,whndreset
     483                            WAITSWITCH_DWN  B_PUNCH,J_ALL,whndreset
     484                    
     485                            movi            yok_finish1_move,a0
     486                            move            a0,*a8(SPECIAL_MOVE_ADDR),L
     487                            DIE
     488                            .endif
     489                            
     490                    
     491                            .if NUM_YOKO_FINISHES > 1
     492                     SUBRP  yok_finish_move2
     493                    
     494                    qblrTIMEOUT     .equ    TSEC
     495                    
     496                    qblrend_wait
     497                            SLEEP           TSEC/4
     498                            move            @p1rounds,a0                    ; Get player 1 rounds
     499                            move            @p2rounds,a1                    ; Get player 2 rounds
     500                            or              a1,a0                           ; Put em together
     501                            cmpi            2,a0                            ; Anybody got 2?
     502                            jrlt            qblrend_wait                    ; br = no
     503                    
     504                    qblrreset
     505                            clr             a11
     506                            move            a11,@in_finish_move
     507                            SLEEPK          1
     508                            WAITSWITCH_DWN  J_UP,0,qblrreset
     509                            movi            qblrTIMEOUT,a11
TMS340 COFF Macro Assembler Version 6.10     Mon Oct 30 16:55:16 2023
 Copyright (c) 1985-1991  Texas Instruments Incorporated 

meters, names, messages, and scores                                  PAGE   12

     510                            move            a11,@in_finish_move
     511                            WAITSWITCH_DWN  J_UP,0,qblrreset
     512                            WAITSWITCH_DWN  J_RIGHT,J_UP,qblrreset
     513                            WAITSWITCH_DWN  J_RIGHT,J_UP,qblrreset
     514                            WAITSWITCH_DWN  B_SPUNCH,J_ALL,qblrreset
     515                    
     516                            movi            yok_finish2_move,a0
     517                            move            a0,*a8(SPECIAL_MOVE_ADDR),L
     518                            DIE
     519                            .endif
     520                    
     521                    
     522 00002760           yok_grab_toss_air
     523                    
     524              0028  utswTIMEOUT     .equ    40
     525                    
     526 00002760           utswlp0
     527 00002760                   SLEEPK  1
     528 000027a0           utswlp
     529 000027a0     576b          clr     a11
     530                    
     531 000027b0                   WAITSWITCH_DWN  J_AWAY,0,utswlp
     532                    
     533 00002910     09cb          movi    utswTIMEOUT,a11
         00002920     0028  
     534                    
     535 00002930                   WAITSWITCH_DWN  J_AWAY,0,utswlp
     536 00002a90                   WAITSWITCH_DWN  B_PUNCH,J_ALL,utswlp
     537                    
     538 00002bf0     b500          move    *a8(ANIMODE),a0
         00002c00     0660  
     539 00002c10     1fa0          btst    MODE_UNINT_BIT,a0
     540 00002c20     cbb7          jrnz    utswlp
     541                    
     542 00002c30     b500          move    *a8(PLYRMODE),a0
         00002c40     05c0  
     543 00002c50     0b40          cmpi    MODE_HEADHOLD,a0
         00002c60     ffef  
     544 00002c70     caae          jreq    utswlp0
     545                    
     546 00002c80                   SWAP    a8,a13
     547 00002cb0     0d5f          calla   get_opp_plyrmode
         00002cc0 00000000! 
     548 00002ce0                   SWAP    a8,a13
     549 00002d10     0b40          cmpi    MODE_ONGROUND,a0
         00002d20     fffb  
     550 00002d30     caa6          jrz     utswlp
     551 00002d40     0b40          cmpi    MODE_DEAD,a0
         00002d50     fff6  
     552 00002d60     caa3          jrz     utswlp
     553 00002d70     0b40          cmpi    MODE_INAIR,a0
         00002d80     fffd  
     554 00002d90     ca40          jrz     utswdoit2
     555 00002da0     0b40          cmpi    MODE_INAIR2,a0
         00002db0     ffea  
TMS340 COFF Macro Assembler Version 6.10     Mon Oct 30 16:55:16 2023
 Copyright (c) 1985-1991  Texas Instruments Incorporated 

meters, names, messages, and scores                                  PAGE   13

     556 00002dc0     ca3d          jrz     utswdoit2
     557                    
     558 00002dd0     b500          move    *a8(CLOSEST_NUM),a0
         00002de0     03a0  
     559 00002df0                   X32     a0
     560 00002e00     0b20          addi    process_ptrs,a0
         00002e10 00000000! 
     561 00002e30     8600          move    *a0,a0,L
     562 00002e40     b400          move    *a0(ATTACK_TYPE),a0
         00002e50     05e0  
     563 00002e60     0b40          cmpi    AT_LEAPING,a0
         00002e70     ffc6  
     564 00002e80     ca31          jrz     utswdoit2
     565                    
     566 00002e90     b500          move    *a8(CLOSEST_DIST),a0
         00002ea0     0360  
     567 00002eb0     0b40          cmpi    6ch,a0
         00002ec0     ff93  
     568 00002ed0     c78c          jrgt    utswlp
     569                    
     570 00002ee0                   FACE24  yok,hiptoss_anim
     571 00002f80     b208          move    a0,*a8(SPECIAL_MOVE_ADDR),L
         00002f90     0930  
     572                    
     573 00002fa0                   WRSND   W_YOKO,GRABFLING_T1,PUNCH_T2
     574                    
     575 00003140                   SLEEPK  20
     576 00003180     c000          jruc    utswlp
         00003190     ff60  
     577                    
     578 000031a0           utswdoit2       FACE24  yok,hiptoss2_anim
     579 00003240     b208          move    a0,*a8(SPECIAL_MOVE_ADDR),L
         00003250     0930  
     580                    
     581 00003260                   WRSND   W_YOKO,GRABFLING_T1,PUNCH_T2
     582                    
     583 00003400                   SLEEPK  20
     584                    
     585 00003440     c000          jruc    utswlp
         00003450     ff34  
     586                    
     587                    
     588 00003460           yok_hdhold_suplex
     589                    
     590              003c  greuTIMEOUT     .equ    60
     591                    
     592 00003460           greulp0
     593 00003460                   SLEEPK  1
     594 000034a0           greulp
     595 000034a0     b500          move    *a8(PLYRMODE),a0
         000034b0     05c0  
     596 000034c0     0b40          cmpi    MODE_HEADHOLD,a0
         000034d0     ffef  
     597 000034e0     ca03          jrz     greucont
     598 000034f0     0b40          cmpi    MODE_HEADHELD,a0
TMS340 COFF Macro Assembler Version 6.10     Mon Oct 30 16:55:16 2023
 Copyright (c) 1985-1991  Texas Instruments Incorporated 

meters, names, messages, and scores                                  PAGE   14

         00003500     ffec  
     599 00003510     cbf4          jrnz    greulp0
     600 00003520           greucont
     601 00003520     576b          clr     a11
     602                    
     603 00003530                   WAITSWITCH_DWN  J_DOWN,0,greulp
     604                    
     605 00003690     09cb          movi    greuTIMEOUT,a11
         000036a0     003c  
     606                    
     607 000036b0                   WAITSWITCH_DWN  J_DOWN,0,greulp
     608 00003810                   WAITSWITCH_DWN  B_SKICK,J_ALL,greulp
     609                            
     610 00003970     b500          move    *a8(PLYRMODE),a0
         00003980     05c0  
     611 00003990     0b40          cmpi    MODE_HEADHOLD,a0
         000039a0     ffef  
     612 000039b0     ca1c          jrz     greuslam
     613 000039c0     0b40          cmpi    MODE_HEADHELD,a0
         000039d0     ffec  
     614 000039e0     cba7          jrnz    greulp0
     615 000039f0     b50e          move    *a8(I_WILL_DIE),A14
         00003a00     0b30  
     616 00003a10     cba4          jrnz    greulp0
     617                    
     618                    
     619 00003a20     b50e          move    *a8(IMMOBILIZE_TIME),a14
         00003a30     0ae0  
     620 00003a40     cba1          jrnz    greulp0                         ;ignore
     621                    
     622 00003a50     0d5f          CALLA   DO_REVERSAL
         00003a60 00000000! 
     623 00003a80     0d5f          CALLA   DO_REVERSAL_MESS
         00003a90 00000000! 
     624                    
     625                            ;target WHOHITME -- don't hit anyone else
     626 00003ab0                   SMRTTGT a8,WHOHITME
     627                    
     628                            ;immobilize WHOHITME
     629 00003b50     b700          move    *a8(WHOHITME),a0,L
         00003b60     04e0  
     630 00003b70     c019          jruc    greuis_reversal
     631                    
     632 00003b80           greuslam
     633 00003b80     b50e          move    *a8(IMMOBILIZE_TIME),a14
         00003b90     0ae0  
     634 00003ba0     cb8b          jrnz    greulp0                         ;ignore
     635                    
     636 00003bb0     09ca          movi    42,a10
         00003bc0     002a  
     637 00003bd0                   CREATE  MESSAGE_PID,BONUS_MESS
     638                    
     639                            ;target WHOIHIT -- don't hit anyone else
     640 00003c50                   SMRTTGT a8,WHOIHIT
     641                    
TMS340 COFF Macro Assembler Version 6.10     Mon Oct 30 16:55:16 2023
 Copyright (c) 1985-1991  Texas Instruments Incorporated 

meters, names, messages, and scores                                  PAGE   15

     642                            ;immobilize WHOIHIT
     643 00003cf0     b700          move    *a8(WHOIHIT),a0,L
         00003d00     0500  
     644                    
     645 00003d10           greuis_reversal
     646 00003d10     1bce          movk    30,a14
     647 00003d20     b1c0          move    a14,*a0(IMMOBILIZE_TIME)
         00003d30     0ae0  
     648                    
     649 00003d40     0d5f          CALLA   FIND_AND_KILL_ENDLESS
         00003d50 00000000! 
     650                    
     651 00003d70     09ee          movi    yok_vsuplex_anim,a14
         00003d80 00000000! 
     652 00003da0     b3c8          move    a14,*a8(SPECIAL_MOVE_ADDR),L
         00003db0     0930  
     653                    
     654 00003dc0                   WRSND   W_YOKO,GRABFLING_T1,GRABFLING_T2
     655                    
     656 00003f60                   SLEEPK  20
     657                    
     658 00003fa0     c000          jruc    greulp
         00003fb0     ff4e  
     659                    
     660 00003fc0           yok_hdhold_scissor
     661                    
     662              003c  dzgdTIMEOUT     .equ    60
     663                    
     664 00003fc0           dzgdlp0
     665 00003fc0                   SLEEPK  1
     666 00004000           dzgdlp
     667 00004000     b500          move    *a8(PLYRMODE),a0
         00004010     05c0  
     668 00004020     0b40          cmpi    MODE_HEADHOLD,a0
         00004030     ffef  
     669 00004040     ca03          jrz     dzgdcont
     670 00004050     0b40          cmpi    MODE_HEADHELD,a0
         00004060     ffec  
     671 00004070     cbf4          jrnz    dzgdlp0
     672 00004080           dzgdcont
     673 00004080     576b          clr     a11
     674                    
     675 00004090                   WAITSWITCH_DWN  J_TOWARD,0,dzgdlp
     676                    
     677 000041f0     09cb          movi    dzgdTIMEOUT,a11
         00004200     003c  
     678                    
     679 00004210                   WAITSWITCH_DWN  J_TOWARD,0,dzgdlp
     680 00004370                   WAITSWITCH_DWN  B_SPUNCH,J_ALL,dzgdlp
     681                            
     682 000044d0     b500          move    *a8(PLYRMODE),a0
         000044e0     05c0  
     683 000044f0     0b40          cmpi    MODE_HEADHOLD,a0
         00004500     ffef  
     684 00004510     ca1c          jrz     dzgdslam
TMS340 COFF Macro Assembler Version 6.10     Mon Oct 30 16:55:16 2023
 Copyright (c) 1985-1991  Texas Instruments Incorporated 

meters, names, messages, and scores                                  PAGE   16

     685 00004520     0b40          cmpi    MODE_HEADHELD,a0
         00004530     ffec  
     686 00004540     cba7          jrnz    dzgdlp0
     687 00004550     b50e          move    *a8(I_WILL_DIE),A14
         00004560     0b30  
     688 00004570     cba4          jrnz    dzgdlp0
     689                    
     690 00004580     b50e          move    *a8(IMMOBILIZE_TIME),a14
         00004590     0ae0  
     691 000045a0     cba1          jrnz    dzgdlp0                         ;ignore
     692                    
     693 000045b0     0d5f          CALLA   DO_REVERSAL
         000045c0 00000000! 
     694 000045e0     0d5f          CALLA   DO_REVERSAL_MESS
         000045f0 00000000! 
     695                    
     696                            ;target WHOHITME -- don't hit anyone else
     697 00004610                   SMRTTGT a8,WHOHITME
     698                    
     699                            ;immobilize WHOHITME
     700 000046b0     b700          move    *a8(WHOHITME),a0,L
         000046c0     04e0  
     701 000046d0     c018          jruc    dzgdis_reversal
     702                    
     703 000046e0           dzgdslam
     704 000046e0     b50e          move    *a8(IMMOBILIZE_TIME),a14
         000046f0     0ae0  
     705 00004700     cb8b          jrnz    dzgdlp0                         ;ignore
     706                    
     707 00004710     09ca          movi    34,a10
         00004720     0022  
     708 00004730                   CREATE0 BONUS_MESS
     709                    
     710                            ;target WHOIHIT -- don't hit anyone else
     711 000047a0                   SMRTTGT a8,WHOIHIT
     712                    
     713                            ;immobilize WHOIHIT
     714 00004840     b700          move    *a8(WHOIHIT),a0,L
         00004850     0500  
     715                    
     716 00004860           dzgdis_reversal
     717 00004860     180e          movk    32,a14
     718 00004870     b1c0          move    a14,*a0(IMMOBILIZE_TIME)
         00004880     0ae0  
     719                    
     720 00004890     0d5f          CALLA   FIND_AND_KILL_ENDLESS
         000048a0 00000000! 
     721 000048c0     09ee          movi    yok_scissor_anim,a14
         000048d0 00000000! 
     722 000048f0     b3c8          move    a14,*a8(SPECIAL_MOVE_ADDR),L
         00004900     0930  
     723 00004910                   WRSND   W_YOKO,GRABFLING_T1,GRABFLING_T2
     724                    
     725 00004ab0                   SLEEPK  20
     726                    
TMS340 COFF Macro Assembler Version 6.10     Mon Oct 30 16:55:16 2023
 Copyright (c) 1985-1991  Texas Instruments Incorporated 

meters, names, messages, and scores                                  PAGE   17

     727 00004af0     c000          jruc    dzgdlp
         00004b00     ff4f  
     728                    
     729 00004b10           yok_hdhold_combo1
     730                    
     731              003c  tihvTIMEOUT     .equ    60
     732                    
     733 00004b10           tihvlp0
     734 00004b10                   SLEEPK  1
     735 00004b50           tihvlp
     736 00004b50     b500          move    *a8(PLYRMODE),a0
         00004b60     05c0  
     737 00004b70     0b40          cmpi    MODE_HEADHOLD,a0
         00004b80     ffef  
     738 00004b90     cbf7          jrnz    tihvlp0
     739 00004ba0     0d5f          calla   CHECK_COMBO_GO
         00004bb0 00000000! 
     740 00004bd0     c4f3          jrlt    tihvlp0
     741                    
     742 00004be0     576b          clr     a11
     743                    
     744 00004bf0                   WAITSWITCH_DWN  J_TOWARD,0,tihvlp
     745                    
     746 00004d50     09cb          movi    tihvTIMEOUT,a11
         00004d60     003c  
     747                    
     748 00004d70                   WAITSWITCH_DWN  J_TOWARD,0,tihvlp
     749 00004ed0                   WAITSWITCH_DWN  B_SPUNCH,J_ALL,tihvlp
     750                    
     751 00005030     b500          move    *a8(PLYRMODE),a0
         00005040     05c0  
     752 00005050     0b40          cmpi    MODE_HEADHOLD,a0
         00005060     ffef  
     753 00005070     ca03          jrz     tihvslam
     754 00005080     0b40          cmpi    MODE_HEADHELD,a0
         00005090     ffec  
     755 000050a0     cba6          jrnz    tihvlp0
     756                    
     757 000050b0           tihvslam
     758 000050b0     b50e          move    *a8(IMMOBILIZE_TIME),a14
         000050c0     0ae0  
     759 000050d0     cba3          jrnz    tihvlp0                         ;ignore
     760                    
     761                    
     762                            ;target WHOIHIT
     763 000050e0                   SMRTTGT a8,WHOIHIT
     764                    
     765 00005180     0d5f          CALLA   FIND_AND_KILL_ENDLESS
         00005190 00000000! 
     766 000051b0     09ee          movi    yok_combo_jabs_anim,a14
         000051c0 00000000! 
     767 000051e0     b3c8          move    a14,*a8(SPECIAL_MOVE_ADDR),L
         000051f0     0930  
     768                    
     769 00005200                   WRSND   W_YOKO,UPRCUT_T1,UPRCUT_T2
TMS340 COFF Macro Assembler Version 6.10     Mon Oct 30 16:55:16 2023
 Copyright (c) 1985-1991  Texas Instruments Incorporated 

meters, names, messages, and scores                                  PAGE   18

     770                    
     771 000053a0                   SLEEPK  20
     772                    
     773 000053e0     c000          jruc    tihvlp
         000053f0     ff75  
     774                    
     775 00005400           yok_hdhold_combo2
     776                    
     777              003c  cotfTIMEOUT     .equ    60
     778                    
     779 00005400           cotflp0
     780 00005400                   SLEEPK  1
     781 00005440           cotflp
     782 00005440     b500          move    *a8(PLYRMODE),a0
         00005450     05c0  
     783 00005460     0b40          cmpi    MODE_HEADHOLD,a0
         00005470     ffef  
     784 00005480     cbf7          jrnz    cotflp0
     785 00005490     0d5f          calla   CHECK_COMBO_GO
         000054a0 00000000! 
     786 000054c0     c4f3          jrlt    cotflp0
     787                    
     788 000054d0     576b          clr     a11
     789                    
     790 000054e0                   WAITSWITCH_DWN  J_TOWARD,0,cotflp
     791                    
     792 00005640     09cb          movi    cotfTIMEOUT,a11
         00005650     003c  
     793                    
     794 00005660                   WAITSWITCH_DWN  J_TOWARD,0,cotflp
     795 000057c0                   WAITSWITCH_DWN  B_PUNCH,J_ALL,cotflp
     796                    
     797 00005920     b500          move    *a8(PLYRMODE),a0
         00005930     05c0  
     798 00005940     0b40          cmpi    MODE_HEADHOLD,a0
         00005950     ffef  
     799 00005960     ca03          jrz     cotfslam
     800 00005970     0b40          cmpi    MODE_HEADHELD,a0
         00005980     ffec  
     801 00005990     cba6          jrnz    cotflp0
     802                    
     803 000059a0           cotfslam
     804 000059a0     b50e          move    *a8(IMMOBILIZE_TIME),a14
         000059b0     0ae0  
     805 000059c0     cba3          jrnz    cotflp0                         ;ignore
     806                    
     807                    
     808                            ;target WHOIHIT
     809 000059d0                   SMRTTGT a8,WHOIHIT
     810                    
     811 00005a70     0d5f          CALLA   FIND_AND_KILL_ENDLESS
         00005a80 00000000! 
     812 00005aa0     09ee          movi    yok_combo_kick_anim,a14
         00005ab0 00000000! 
     813 00005ad0     b3c8          move    a14,*a8(SPECIAL_MOVE_ADDR),L
TMS340 COFF Macro Assembler Version 6.10     Mon Oct 30 16:55:16 2023
 Copyright (c) 1985-1991  Texas Instruments Incorporated 

meters, names, messages, and scores                                  PAGE   19

         00005ae0     0930  
     814                    
     815 00005af0                   WRSND   W_YOKO,UPRCUT_T1,UPRCUT_T2
     816                    
     817 00005c90                   SLEEPK  20
     818                    
     819 00005cd0     c000          jruc    cotflp
         00005ce0     ff75  
     820                    
     821                    
     822 00005cf0           yok_salt_throw
     823                    
     824              003c  usnqTIMEOUT     .equ    60
     825                    
     826 00005cf0           usnqlp0
     827 00005cf0                   SLEEPK  1
     828 00005d30           usnqlp
     829 00005d30     b500          move    *a8(PLYRMODE),a0
         00005d40     05c0  
     830 00005d50     0b40          cmpi    MODE_HEADHOLD,a0
         00005d60     ffef  
     831 00005d70     ca03          jrz     usnqcont
     832 00005d80     0b40          cmpi    MODE_HEADHELD,a0
         00005d90     ffec  
     833 00005da0     cbf4          jrnz    usnqlp0
     834 00005db0           usnqcont
     835 00005db0     576b          clr     a11
     836                    
     837 00005dc0                   WAITSWITCH_DWN  J_DOWN,0,usnqlp
     838                    
     839 00005f20     09cb          movi    usnqTIMEOUT,a11
         00005f30     003c  
     840                    
     841 00005f40                   WAITSWITCH_DWN  J_TOWARD,J_DOWN|J_UP,usnqlp
     842 000060a0                   WAITSWITCH_DWN  B_PUNCH,J_ALL,usnqlp
     843                            
     844 00006200     0d5f          CALLA   FIND_AND_KILL_ENDLESS
         00006210 00000000! 
     845 00006230     09e0          movi    yok_4_salt_anim,a0
         00006240 00000000! 
     846 00006260     b208          move    a0,*a8(SPECIAL_MOVE_ADDR),L
         00006270     0930  
     847 00006280                   WRSND   W_YOKO,LBOWDROP_T1,LBOWDROP_T2
     848                    
     849 00006420                   SLEEP   120
     850                    
     851 00006470     c08b          jruc    usnqlp
     852                    
     853                    
     854 00006480            SUBR   yoko_ani_init
     855                    
     856 00006480     b5a0          move    *a13(FACING_DIR),a0
         00006490     04c0  
     857 000064a0     1f80          btst    PLAYER_RIGHT_BIT,a0
     858 000064b0     cb18          jrnz    hrgxp1
TMS340 COFF Macro Assembler Version 6.10     Mon Oct 30 16:55:16 2023
 Copyright (c) 1985-1991  Texas Instruments Incorporated 

meters, names, messages, and scores                                  PAGE   20

     859 000064c0     09e0          movi    yok_stand4_anim,a0
         000064d0 00000000! 
     860 000064f0     0d5f          calla   change_anim1a
         00006500 00000000! 
     861                    
     862 00006520     09e0          movi    yok_torso4_anim,a0
         00006530 00000000! 
     863 00006550     0d5f          calla   change_anim2a
         00006560 00000000! 
     864                    
     865 00006580                   PUSH    a10
     866 00006590     4daa          move    a13,a10
     867                    
     868 000065a0                   CREATE  TAUNT_PID,do_taunt
     869 00006620                   PULL    a10
     870                    
     871 00006630     0960          rets
     872                    
     873 00006640           hrgxp1
     874 00006640     09e0          movi    yok_stand2_anim,a0
         00006650 00000000! 
     875 00006670     0d5f          calla   change_anim1a
         00006680 00000000! 
     876                    
     877 000066a0     09e0          movi    yok_torso2_anim,a0
         000066b0 00000000! 
     878 000066d0     0d5f          calla   change_anim2a
         000066e0 00000000! 
     879                    
     880 00006700     0960          rets
     881                    
     882                    
     883                    
     884 00006710            SUBR   move_yoko
     885                    
     886                    
     887                    
     888 00006710     09eb          movi    yok_secret_moves,a11
         00006720 00000000' 
     889 00006740     0d5f          calla   check_secret_moves
         00006750 00000000! 
     890                    
     891 00006770     b5a0          move    *a13(PLYRMODE),a0
         00006780     05c0  
     892 00006790     24a0          sll     5,a0                    ;x 32
     893 000067a0     0b20          addi    eezrmode_table,a0
         000067b0 00006800' 
     894 000067d0     8600          move    *a0,a0,L
     895 000067e0     0920          call    a0
     896 000067f0     0960          rets
     897                    
     898 00006800           eezrmode_table
     899 00006800 00006b40'         .long   mode_normal             ;0
     900 00006820 0000e340'         .long   mode_running            ;1
     901 00006840 000102d0'         .long   mode_inair              ;2
TMS340 COFF Macro Assembler Version 6.10     Mon Oct 30 16:55:16 2023
 Copyright (c) 1985-1991  Texas Instruments Incorporated 

meters, names, messages, and scores                                  PAGE   21

     902 00006860 000102e0'         .long   mode_attached           ;3
     903 00006880 00010450'         .long   mode_onground           ;4
     904 000068a0 00010460'         .long   mode_bouncing           ;5
     905 000068c0 00010700'         .long   mode_onturnbkl          ;6
     906 000068e0 000110a0'         .long   mode_block              ;7
     907 00006900 00011b20'         .long   mode_dizzy              ;8
     908 00006920 00000000!         .long   mode_dead               ;9
     909 00006940 00011b30'         .long   mode_oppoverhead        ;10
     910 00006960 00012ba0'         .long   mode_climbturnbkl       ;11
     911 00006980 00012bb0'         .long   mode_waitanim           ;12
     912 000069a0 00012c30'         .long   mode_grapple            ;13
     913 000069c0 00012c40'         .long   mode_master             ;14
     914 000069e0 00012c80'         .long   mode_slave              ;15
     915 00006a00 00012c90'         .long   mode_headhold           ;16
     916 00006a20 00014620'         .long   mode_puppet2            ;17
     917 00006a40 00006b40'         .long   mode_normal     ;18
     918 00006a60 00014630'         .long   mode_headheld           ;19
     919 00006a80                   REFLONG mode_puppet             ;20
     920 00006aa0                   REFLONG mode_inair2             ;21
     921 00006ac0 00006b40'         .long   mode_normal     ;22
     922 00006ae0 00006b40'         .long   mode_normal     ;23
     923 00006b00 00014af0'         .long   mode_chokehold          ;24
     924 00006b20                   REFLONG mode_choking            ;25
     925                    
     926                    
     927                    
     928 00006b40           mode_normal
     929                    
     930 00006b40     b5a0          move    *a13(ANIMODE),a0
         00006b50     0660  
     931 00006b60     1fa0          btst    MODE_UNINT_BIT,a0
     932 00006b70     cb00          jrnz    uwoyno_interrupt
         00006b80     00b0  
     933                    
     934 00006b90     b5a0          move    *a13(I_WILL_DIE),a0
         00006ba0     0b30  
     935 00006bb0     ca1f          jrz     uwoynope
     936 00006bc0     b5a0          move    *a13(IMMOBILIZE_TIME),a0
         00006bd0     0ae0  
     937 00006be0     cb1c          jrnz    uwoynope
     938 00006bf0     09e0          movi    yok_fall_back_anim,a0
         00006c00 00000000! 
     939 00006c20     0d5f          calla   change_anim1a
         00006c30 00000000! 
     940                    
     941 00006c50     09c0          movi    -10,a0
         00006c60     fff6  
     942 00006c70     b5a1          move    *a13(PLYRNUM),a1
         00006c80     0580  
     943 00006c90     0d5f          calla   adjust_health
         00006ca0 00000000! 
     944                    
     945 00006cc0                   SETMODE DEAD
     946                    
     947 00006d70     5600          clr     a0
TMS340 COFF Macro Assembler Version 6.10     Mon Oct 30 16:55:16 2023
 Copyright (c) 1985-1991  Texas Instruments Incorporated 

meters, names, messages, and scores                                  PAGE   22

     948 00006d80     b00d          move    a0,*a13(I_WILL_DIE)
         00006d90     0b30  
     949                    
     950 00006da0     0960          rets
     951                    
     952 00006db0           uwoynope
     953                    
     954 00006db0     0d5f          calla   get_opp_plyrmode
         00006dc0 00000000! 
     955 00006de0     0b40          cmpi    MODE_DEAD,a0
         00006df0     fff6  
     956 00006e00     cb49          jrne    uwoyopp_not_dead
     957                    
     958                            ;if closest is a zombie, skip pin section.
     959 00006e10     0d5f          calla   get_opp_process
         00006e20 00000000! 
     960 00006e40     b40e          move    *a0(STATUS_FLAGS),a14
         00006e50     0b50  
     961 00006e60     1f8e          btst    B_ZOMBIE,a14
     962 00006e70     cb42          jrnz    uwoyopp_not_dead
     963                            
     964                            ;all opponents are dead.  Check for pins/raisearms
     965                    
     966                            ;if we're attached to someone, don't interrupt it.
     967 00006e80     b7a1          move    *a13(ATTACH_PROC),a1,L
         00006e90     03e0  
     968 00006ea0     ca04          jrz     uwoyno_attch
     969 00006eb0     b622          move    *a1(ATTACH_PROC),a2,L
         00006ec0     03e0  
     970 00006ed0     484d          cmp     a2,a13
     971 00006ee0     ca3b          jreq    uwoyno_pin_yet
     972 00006ef0           uwoyno_attch
     973                    
     974                            ;if a teammate has pinned, raise yer arm.
     975 00006ef0     0d5f          calla   ck_teammate_pin 
         00006f00 00000000! 
     976 00006f20     c823          jrc     uwoyraisearm
     977                    
     978                            ;nobody has pinned.  if we're outside or all our opponents are
     979                            ; outside, do a raisearm.
     980 00006f30     0d5f          calla   raisearm_check
         00006f40 00000000! 
     981 00006f60     c81f          jrc     uwoyraisearm
     982                    
     983                            ;we're inside with a pinnable opponent.  any button pins.
     984 00006f70     b5a0          move    *a13(BUT_VAL_CUR),a0
         00006f80     0b90  
     985 00006f90     ca30          jrz     uwoyno_pin_yet
     986                    
     987                            ;we have a press -- make sure opponent is on the ground
     988 00006fa0     0d5f          calla   can_pin
         00006fb0 00000000! 
     989 00006fd0     c92c          jrnc    uwoyopp_notgnd
     990                    
     991                            ;opponent is on the ground.  pin him.
TMS340 COFF Macro Assembler Version 6.10     Mon Oct 30 16:55:16 2023
 Copyright (c) 1985-1991  Texas Instruments Incorporated 

meters, names, messages, and scores                                  PAGE   23

     992 00006fe0                   FACE24  yok,pin_anim
     993 00007080     0d5f          calla   change_anim1a
         00007090 00000000! 
     994                    
     995                            ;set the 'I did a pin' flag.
     996 000070b0     b5ae          move    *a13(STATUS_FLAGS),a14
         000070c0     0b50  
     997 000070d0     0bae          ori     M_DID_PIN,a14
         000070e0 00000002  
     998 00007100     b1cd          move    a14,*a13(STATUS_FLAGS)
         00007110     0b50  
     999                    
    1000                            ;if we're a temp drone for auto-pin purposes, turn back into
    1001                            ; a normal player here.
    1002 00007120     0d5f          calla   drone_change_back
         00007130 00000000! 
    1003                    
    1004 00007150     0960          rets
    1005                    
    1006 00007160           uwoyraisearm
    1007 00007160                   FACE24  yok,raise_arm_anim
    1008 00007200     0d5f          calla   change_anim1a
         00007210 00000000! 
    1009 00007230     0d5f          calla   set_raisearm_bit
         00007240 00000000! 
    1010                    
    1011                            ;if we're a temp drone for auto-pin purposes, turn back into
    1012                            ; a normal player here.
    1013 00007260     0d5f          calla   drone_change_back
         00007270 00000000! 
    1014                    
    1015 00007290     0960          rets
    1016                    
    1017 000072a0           uwoytoo_far_to_pin
    1018 000072a0           uwoyopp_notgnd
    1019 000072a0           uwoyopp_not_dead
    1020 000072a0           uwoyno_pin_yet
    1021                    
    1022 000072a0     b5a0          move    *a13(IMMOBILIZE_TIME),a0
         000072b0     0ae0  
    1023 000072c0     cb36          jrnz    uwoyimmobilized
    1024                    
    1025 000072d0     b5a0          move    *a13(BUT_VAL_CUR),a0
         000072e0     0b90  
    1026 000072f0     1fc0          btst    PLAYER_BLOCK_BIT,a0     ;maybe have to action tables?
    1027 00007300     ca07          jrz     uwoynblk                        ;1 for down transitions
    1028 00007310     0d3f          callr   uwoyblock                       ;& 1 for current buttons
         00007320     01ff  
    1029 00007330     c804          jrc     uwoynblk
    1030 00007340     5600          clr     a0
    1031 00007350     b00d          move    a0,*a13(ATTACK_TYPE)
         00007360     05e0  
    1032 00007370     0960          rets
    1033 00007380           uwoynblk
    1034 00007380     b5a0          move    *a13(BUT_VAL_CUR),a0
TMS340 COFF Macro Assembler Version 6.10     Mon Oct 30 16:55:16 2023
 Copyright (c) 1985-1991  Texas Instruments Incorporated 

meters, names, messages, and scores                                  PAGE   24

         00007390     0b90  
    1035 000073a0     0b80          andi    011111b,a0
         000073b0 ffffffe0  
    1036 000073d0     0b40          cmpi    PLAYER_PUNCH_VAL|PLAYER_KICK_VAL,a0
         000073e0     fff6  
    1037 000073f0     ca00          jrz     uwoypunchkick
         00007400     0572  
    1038                    
    1039 00007410     b5a0          move    *a13(BUT_VAL_DOWN),a0
         00007420     0ba0  
    1040 00007430     0b80          andi    011111b,a0
         00007440 ffffffe0  
    1041 00007460                   X32     a0
    1042 00007470     0b20          addi    uwoyaction_table,a0
         00007480 000076a0' 
    1043 000074a0     8600          move    *a0,a0,L
    1044 000074b0     0920          call    a0
    1045                    
    1046 000074c0     b5a0          move    *a13(ANIMODE),a0
         000074d0     0660  
    1047 000074e0     1fa0          btst    MODE_UNINT_BIT,a0
    1048 000074f0     cb19          jrnz    uwoyno_interrupt
    1049                    
    1050                    
    1051 00007500     b5a0          move    *a13(STICK_VAL_CUR),a0
         00007510     0bc0  
    1052 00007520     b00d          move    a0,*a13(MOVE_DIR)
         00007530     04b0  
    1053 00007540     0d5f          calla   climb_turnbuckle
         00007550 00000000! 
    1054 00007570     c90e          jrnc    uwoyno_climb
    1055 00007580     b5a5          move    *a13(WRESTLERNUM),A5
         00007590     0590  
    1056 000075a0     09e2          MOVI    CLIMB_ROPES,A2
         000075b0 00000000! 
    1057 000075d0     09c0          MOVI    1000,A0
         000075e0     03e8  
    1058 000075f0     0d5f          CALLA   ADD_IF_SILENT
         00007600 00000000! 
    1059 00007620     0960          rets
    1060                    
    1061 00007630           uwoyimmobilized
    1062 00007630     57ce          clr     a14
    1063 00007640     b1cd          move    a14,*a13(MOVE_DIR)
         00007650     04b0  
    1064 00007660           uwoyno_climb
    1065 00007660     0d5f          calla   execute_walk
         00007670 00000000! 
    1066                    
    1067 00007690           uwoyno_interrupt
    1068 00007690     0960          rets
    1069                    
    1070 000076a0           uwoyaction_table
    1071 000076a0 00007aa0'         .long   uwoyz,uwoypunch,uwoyblock,uwoyblock                     ;0-3
    1072 00007720 00009530'         .long   uwoysuper_punch,uwoysuper_punch,uwoyblock,uwoyblock     ;4-7
TMS340 COFF Macro Assembler Version 6.10     Mon Oct 30 16:55:16 2023
 Copyright (c) 1985-1991  Texas Instruments Incorporated 

meters, names, messages, and scores                                  PAGE   25

    1073 000077a0 0000b330'         .long   uwoykick,uwoypunchkick,uwoyblock,uwoyblock              ;8-11
    1074 00007820 00009530'         .long   uwoysuper_punch,uwoypunchkick,uwoyblock,uwoyblock       ;12-15
    1075 000078a0 0000cba0'         .long   uwoysuper_kick,uwoysuper_kick,uwoyblock,uwoyblock       ;16-19
    1076 00007920 00007ab0'         .long   uwoygraboh,uwoygraboh,uwoyblock,uwoyblock               ;20-23
    1077 000079a0 0000cba0'         .long   uwoysuper_kick,uwoypunchkick,uwoyblock,uwoyblock        ;24-27
    1078 00007a20 00007ab0'         .long   uwoygraboh,uwoygraboh,uwoyblock,uwoyblock               ;28-31
    1079                    
    1080 00007aa0           uwoyz
    1081                    
    1082 00007aa0     0960          rets
    1083                    
    1084 00007ab0           uwoygraboh
    1085 00007ab0     09e0          movi    yok_graboh_anim,a0
         00007ac0 00000000! 
    1086 00007ae0     0d5f          calla   change_anim1a
         00007af0 00000000! 
    1087 00007b10                   WRSND   W_YOKO,GRABHOLD_T1,GRABHOLD_T2
    1088 00007cb0     0960          rets
    1089                    
    1090 00007cc0           uwoypunch               ;1
    1091                    
    1092 00007cc0                   JJXM_INIT
    1093 00007d30                   JJXM    NORMAL,          62, 95,uwoypunch_hdbutt,uwoypunch_punch
    1094 00007e00                   JJXM    DIZZY,           62, 95,uwoypunch_hdbutt,uwoypunch_punch
    1095 00007ed0                   JJXM    BLOCK,           62, 95,uwoypunch_hdbutt,uwoypunch_punch
    1096 00007fa0                   JJXM    ONGROUND,       160,140,uwoypunch_lbdrop,uwoypunch_punch
    1097 00008070                   JJXM    RUNNING,         62, 95,uwoypunch_hdbutt,uwoypunch_punch
    1098 00008140                   JJXM    BOUNCING,        62, 95,uwoypunch_hdbutt,uwoypunch_punch
    1099 00008210                   JJXM    ONTURNBKL,              uwoypunch_punch
    1100 00008260                   JJXM    CLIMBTURNBKL,           uwoypunch_punch
    1101 000082b0                   JJXM    PUPPET,          62, 95,uwoypunch_hdbutt,uwoypunch_punch
    1102 00008380                   JJXM    PUPPET2,         62, 95,uwoypunch_hdbutt,uwoypunch_punch
    1103 00008440                   JJXM    INAIR,           62, 95,uwoypunch_hdbutt,uwoypunch_punch
    1104 000084f0                   JJXM    ATTACHED,        62, 95,uwoypunch_hdbutt,uwoypunch_punch
    1105 000085a0                   JJXM    DEAD,           160,140,uwoypunch_lbdrop,uwoypunch_punch
    1106 00008650                   JJXM    OPPOVERHEAD,     62, 95,uwoypunch_hdbutt,uwoypunch_punch
    1107 000086f0                   JJXM    WAITANIM,        62, 95,uwoypunch_hdbutt,uwoypunch_punch
    1108 00008790                   JJXM    GRAPPLE,         62, 95,uwoypunch_hdbutt,uwoypunch_punch
    1109 00008830                   JJXM    MASTER,          62, 95,uwoypunch_hdbutt,uwoypunch_punch
    1110 000088d0                   JJXM    SLAVE,           62, 95,uwoypunch_hdbutt,uwoypunch_punch
    1111 00008970                   JJXM    HEADHOLD,        62, 95,uwoypunch_hdbutt,uwoypunch_punch
    1112 00008a10                   JJXM    HEADHELD,        62, 95,uwoypunch_hdbutt,uwoypunch_punch
    1113 00008ab0                   JJXM    CHOKEHOLD,       62, 95,uwoypunch_hdbutt,uwoypunch_punch
    1114 00008b50                   JJXM    INAIR2,          62, 95,uwoypunch_hdbutt,uwoypunch_punch
    1115 00008bf0                   JJXM_END
    1116                    
    1117 00008c10           uwoypunch_punch
    1118 00008c10           std_punch
    1119                    
    1120 00008c10                   FACE24  yok,punch_anim
    1121 00008cb0     0d5f          calla   change_anim1a
         00008cc0 00000000! 
    1122                    
    1123 00008ce0                   WRSND   W_YOKO,PUNCH_T1,PUNCH_T2
    1124 00008e80     0960          rets
TMS340 COFF Macro Assembler Version 6.10     Mon Oct 30 16:55:16 2023
 Copyright (c) 1985-1991  Texas Instruments Incorporated 

meters, names, messages, and scores                                  PAGE   26

    1125                    
    1126 00008e90           uwoypunch_hdbutt
    1127                    
    1128 00008e90     09e0          movi    yok_heldheadbutt_rpt_anim,a0
         00008ea0 00000000! 
    1129 00008ec0     0d5f          calla   change_anim1a
         00008ed0 00000000! 
    1130                    
    1131 00008ef0                   WRSND   W_YOKO,HDBUTT_T1,HDBUTT_T2
    1132 00009090     0960          rets
    1133                    
    1134 000090a0           uwoypunch_lbdrop
    1135                    
    1136 000090a0                   FACE24  yok,lbowdrop_anim
    1137 00009140     0d5f          calla   change_anim1a
         00009150 00000000! 
    1138                    
    1139 00009170                   WRSND   W_YOKO,LBOWDROP_T1,LBOWDROP_T2
    1140 00009310     0960          rets
    1141                    
    1142 00009320           uwoyblock               ;2
    1143                    
    1144 00009320     5600          clr     a0
    1145 00009330     b20d          move    a0,*a13(OBJ_XVEL),L
         00009340     02d0  
    1146                    
    1147 00009350           std_block
    1148 00009350     05a0          move    @blocking_off,a0
         00009360 00000000! 
    1149 00009380     cb18          jrnz    uwoyno_blocking
    1150                    
    1151 00009390                   RND_AWARD       a13,BLOCKS_AWD
    1152                    
    1153 00009430     09e0          movi    yok_4_block_anim,a0
         00009440 00000000! 
    1154 00009460     0d5f          calla   change_anim1a
         00009470 00000000! 
    1155                    
    1156 00009490     0d5f          calla   BLOCK_WOOSH
         000094a0 00000000! 
    1157                    
    1158 000094c0     5600          clr     a0
    1159 000094d0     b00d          move    a0,*a13(BLOCK_TIME)
         000094e0     0d30  
    1160 000094f0     0320          clrc
    1161 00009500     0960          rets
    1162                    
    1163 00009510           uwoyno_blocking
    1164 00009510     0de0          setc
    1165 00009520     0960          rets
    1166                    
    1167                    
    1168 00009530           uwoysuper_punch ;4
    1169 00009530                   JJXM_INIT
    1170 000095a0                   JJXM    NORMAL,          95, 45,uwoyspunch_special,uwoyspunch_slap      ;0
TMS340 COFF Macro Assembler Version 6.10     Mon Oct 30 16:55:16 2023
 Copyright (c) 1985-1991  Texas Instruments Incorporated 

meters, names, messages, and scores                                  PAGE   27

    1171 00009670                   JJXM    RUNNING,         95, 45,uwoyspunch_special,uwoyspunch_slap      ;1
    1172 00009740                   JJXM    INAIR,           95, 45,uwoyspunch_special,uwoyspunch_slap      ;2
    1173 00009810                   JJXM    ATTACHED,        95, 45,uwoyspunch_special,uwoyspunch_slap      ;3
    1174 000098e0                   JJXM    ONGROUND,       160,140,uwoyspunch_lbowdrop,std_punch   ;4
    1175 000099b0                   JJXM    BOUNCING,        95, 45,uwoyspunch_special,uwoyspunch_slap      ;0
    1176 00009a80                   JJXM    ONTURNBKL,              uwoyspunch_slap                 ;6
    1177 00009ad0                   JJXM    BLOCK,           95, 45,uwoyspunch_special,uwoyspunch_slap      ;7
    1178 00009ba0                   JJXM    DIZZY,           95, 45,uwoyspunch_special,uwoyspunch_slap      ;8
    1179 00009c70                   JJXM    DEAD,           160,140,uwoyspunch_lbowdrop,std_punch   ;4
    1180 00009d40                   JJXM    OPPOVERHEAD,     95, 45,uwoyspunch_special,uwoyspunch_slap      ;10
    1181 00009df0                   JJXM    CLIMBTURNBKL,           std_punch                       ;11
    1182 00009e40                   JJXM    WAITANIM,        95, 45,uwoyspunch_special,uwoyspunch_slap      ;12
    1183 00009ef0                   JJXM    GRAPPLE,         95, 45,uwoyspunch_special,uwoyspunch_slap      ;13
    1184 00009f90                   JJXM    MASTER,          95, 45,uwoyspunch_special,uwoyspunch_slap      ;14
    1185 0000a030                   JJXM    SLAVE,           95, 45,uwoyspunch_special,uwoyspunch_slap      ;15
    1186 0000a0d0                   JJXM    HEADHOLD,        95, 45,uwoyspunch_special,uwoyspunch_slap      ;16
    1187 0000a170                   JJXM    HEADHELD,        95, 45,uwoyspunch_special,uwoyspunch_slap      ;19
    1188 0000a210                   JJXM    CHOKEHOLD,       95, 45,uwoyspunch_special,uwoyspunch_slap      ;16
    1189 0000a2b0                   JJXM    PUPPET,          95, 45,uwoyspunch_special,uwoyspunch_slap      ;20
    1190 0000a350                   JJXM    PUPPET2,         95, 45,uwoyspunch_special,uwoyspunch_slap      ;20
    1191 0000a3f0                   JJXM    INAIR2,          95, 45,uwoyspunch_special,uwoyspunch_slap      ;21
    1192 0000a490                   JJXM_END
    1193                    
    1194 0000a4b0           uwoyspunch_rets
    1195 0000a4b0     0960          rets
    1196                    
    1197 0000a4c0           uwoyspunch_slap
    1198                    
    1199 0000a4c0                   FACE24  yok,slap2_anim
    1200 0000a560     0d5f          calla   change_anim1a
         0000a570 00000000! 
    1201                    
    1202 0000a590                   WRSND   W_YOKO,PUNCH_T1,PUNCH_T2
    1203 0000a730     0960          rets
    1204                    
    1205 0000a740           uwoyspunch_special
    1206 0000a740     b5a0          move    *a13(STICK_VAL_CUR),a0
         0000a750     0bc0  
    1207 0000a760     1fc0          btst    MOVE_DOWN_BIT,a0
    1208 0000a770     cb28          jrnz    uwoyck_up
    1209                    
    1210                    
    1211 0000a780                   FACE24  yok,jabs_anim
    1212 0000a820     0d5f          calla   change_anim1a
         0000a830 00000000! 
    1213                    
    1214 0000a850                   WRSND   W_YOKO,HDBUTT_T1,HDBUTT_T2
    1215 0000a9f0     0960          rets
    1216                    
    1217 0000aa00           uwoyck_up
    1218 0000aa00     09e0          movi    yok_4_uppercut_anim,a0
         0000aa10 00000000! 
    1219 0000aa30     0d5f          calla   change_anim1
         0000aa40 00000000! 
    1220                    
TMS340 COFF Macro Assembler Version 6.10     Mon Oct 30 16:55:16 2023
 Copyright (c) 1985-1991  Texas Instruments Incorporated 

meters, names, messages, and scores                                  PAGE   28

    1221 0000aa60                   WRSND   W_YOKO,HDBUTT_T1,HDBUTT_T2
    1222 0000ac00     0960          rets
    1223                    
    1224 0000ac10           uwoyspunch_lbowdrop
    1225                    
    1226                    
    1227 0000ac10     b5ae          move    *a13(CLOSEST_NUM),a14
         0000ac20     03a0  
    1228 0000ac30                   X32     a14
    1229                    
    1230 0000ac40     0b2e          addi    process_ptrs,a14
         0000ac50 00000000! 
    1231 0000ac70     87ce          move    *a14,a14,L
    1232 0000ac80     b5c2          move    *a14(PLYRMODE),a2
         0000ac90     05c0  
    1233 0000aca0     0b42          cmpi    MODE_DEAD,a2
         0000acb0     fff6  
    1234 0000acc0     ca3e          jrz     uwoyno
    1235 0000acd0     b7a1          move    *a13(OBJ_XPOS),a1,L 
         0000ace0     0100  
    1236 0000acf0     b7c2          move    *a14(OBJ_XPOS),a2,L
         0000ad00     0100  
    1237 0000ad10     4441          sub     a2,a1
    1238 0000ad20     0381          abs     a1
    1239 0000ad30     2e01          srl     16,a1
    1240 0000ad40     0b41          cmpi    20h,a1  ;28
         0000ad50     ffdf  
    1241 0000ad60     c434          jrlt    uwoyno
    1242                    
    1243                    
    1244 0000ad70     b5ce          move    *a14(OBJ_CONTROL),a14
         0000ad80     0780  
    1245 0000ad90     0b8e          andi    M_FLIPH,a14
         0000ada0 ffffffef  
    1246 0000adc0     b5a0          move    *a13(OBJ_CONTROL),a0
         0000add0     0780  
    1247 0000ade0     0b80          andi    M_FLIPH,a0
         0000adf0 ffffffef  
    1248 0000ae10     480e          cmp     a0,a14
    1249 0000ae20     ca28          jrz     uwoyno
    1250                    
    1251                    
    1252 0000ae30                   FACE24  yok,hair_pickup_anim
    1253 0000aed0     0d5f          calla   change_anim1
         0000aee0 00000000! 
    1254 0000af00                   WRSND   W_YOKO,LBOWDROP_T1,LBOWDROP_T2
    1255 0000b0a0     0960          rets
    1256                    
    1257 0000b0b0           uwoyno
    1258 0000b0b0                   FACE24  yok,lbowdrop_anim
    1259 0000b150     0d5f          calla   change_anim1
         0000b160 00000000! 
    1260 0000b180                   WRSND   W_YOKO,LBOWDROP_T1,LBOWDROP_T2
    1261 0000b320     0960          rets
    1262                    
TMS340 COFF Macro Assembler Version 6.10     Mon Oct 30 16:55:16 2023
 Copyright (c) 1985-1991  Texas Instruments Incorporated 

meters, names, messages, and scores                                  PAGE   29

    1263                    
    1264 0000b330           uwoykick                ;8
    1265                    
    1266                    
    1267 0000b330                   JJXM_INIT
    1268 0000b3a0                   JJXM    NORMAL,          60, 50,uwoykick_knee,uwoykick_kick
    1269 0000b470                   JJXM    DIZZY,           60, 50,uwoykick_knee,uwoykick_kick
    1270 0000b540                   JJXM    BLOCK,           60, 50,uwoykick_knee,uwoykick_kick
    1271 0000b610                   JJXM    ONGROUND,       160,140,uwoykick_stomp,uwoykick_kick
    1272 0000b6e0                   JJXM    RUNNING,         60, 50,uwoykick_knee,uwoykick_kick
    1273 0000b7b0                   JJXM    BOUNCING,        60, 50,uwoykick_knee,uwoykick_kick
    1274 0000b880                   JJXM    ONTURNBKL,              uwoykick_kick
    1275 0000b8d0                   JJXM    CLIMBTURNBKL,           uwoykick_kick
    1276 0000b920                   JJXM    PUPPET,                 uwoykick_kick
    1277 0000b970                   JJXM    PUPPET2,                uwoykick_kick
    1278 0000b9c0                   JJXM    INAIR,           60, 50,uwoykick_knee,uwoykick_kick
    1279 0000ba90                   JJXM    ATTACHED,        60, 50,uwoykick_knee,uwoykick_kick
    1280 0000bb60                   JJXM    DEAD,           160,140,uwoykick_stomp,uwoykick_kick
    1281 0000bc10                   JJXM    OPPOVERHEAD,     60, 50,uwoykick_knee,uwoykick_kick
    1282 0000bcc0                   JJXM    WAITANIM,        60, 50,uwoykick_knee,uwoykick_kick
    1283 0000bd70                   JJXM    GRAPPLE,         60, 50,uwoykick_knee,uwoykick_kick
    1284 0000be20                   JJXM    MASTER,          60, 50,uwoykick_knee,uwoykick_kick
    1285 0000bec0                   JJXM    SLAVE,           60, 50,uwoykick_knee,uwoykick_kick
    1286 0000bf60                   JJXM    HEADHOLD,        60, 50,uwoykick_knee,uwoykick_kick
    1287 0000c000                   JJXM    HEADHELD,        60, 50,uwoykick_knee,uwoykick_kick
    1288 0000c0a0                   JJXM    CHOKEHOLD,       60, 50,uwoykick_knee,uwoykick_kick
    1289 0000c140                   JJXM    INAIR2,                 uwoykick_TB
    1290 0000c180                   JJXM_END
    1291                    
    1292 0000c1a0           uwoykick_TB
    1293                    
    1294                            .ref    yok_graboh_TB_anim
    1295 0000c1a0     09e0          movi    yok_graboh_TB_anim,a0
         0000c1b0 00000000! 
    1296 0000c1d0     0d5f          calla   change_anim1a
         0000c1e0 00000000! 
    1297                    
    1298 0000c200                   WRSND   W_YOKO,KICK_T1,KICK_T2
    1299 0000c3a0     0960          rets
    1300                    
    1301 0000c3b0           uwoykick_kick
    1302                    
    1303 0000c3b0                   FACE24  yok,kick_anim
    1304 0000c450     0d5f          calla   change_anim1a
         0000c460 00000000! 
    1305                    
    1306 0000c480                   WRSND   W_YOKO,KICK_T1,KICK_T2
    1307 0000c620     0960          rets
    1308                    
    1309 0000c630           uwoykick_knee
    1310                    
    1311 0000c630                   FACE24  yok,knee_anim
    1312 0000c6d0     0d5f          calla   change_anim1a
         0000c6e0 00000000! 
    1313                    
TMS340 COFF Macro Assembler Version 6.10     Mon Oct 30 16:55:16 2023
 Copyright (c) 1985-1991  Texas Instruments Incorporated 

meters, names, messages, and scores                                  PAGE   30

    1314 0000c700                   WRSND   W_YOKO,KICK_T1,KICK_T2
    1315 0000c8a0     0960          rets
    1316                    
    1317 0000c8b0           uwoykick_stomp
    1318                    
    1319 0000c8b0                   FACE24  yok,stomp_anim
    1320 0000c950     0d5f          calla   change_anim1a
         0000c960 00000000! 
    1321                    
    1322 0000c980                   WRSND   W_YOKO,KICK_T1,KICK_T2
    1323 0000cb20     0960          rets
    1324                    
    1325                    
    1326 0000cb30           uwoypunchkick   ;9
    1327                    
    1328 0000cb30     09e0          movi    start_run_anim,a0
         0000cb40 00000000! 
    1329 0000cb60     0d5f          calla   change_anim1a
         0000cb70 00000000! 
    1330                    
    1331 0000cb90     0960          rets
    1332                    
    1333                    
    1334 0000cba0           uwoysuper_kick  ;16
    1335                    
    1336 0000cba0                   JJXM_INIT
    1337 0000cc10                   JJXM    NORMAL,          60, 50,uwoyskick_knee,uwoyskick_kick
    1338 0000cce0                   JJXM    DIZZY,           60, 50,uwoyskick_knee,uwoyskick_kick
    1339 0000cdb0                   JJXM    BLOCK,           60, 50,uwoyskick_knee,uwoyskick_kick
    1340 0000ce80                   JJXM    ONGROUND,       160,140,uwoyskick_stomp,uwoyskick_kick
    1341 0000cf50                   JJXM    RUNNING,         60, 50,uwoyskick_knee,uwoyskick_kick
    1342 0000d020                   JJXM    BOUNCING,        60, 50,uwoyskick_knee,uwoyskick_kick
    1343 0000d0f0                   JJXM    ONTURNBKL,              uwoyskick_kick
    1344 0000d130                   JJXM    CLIMBTURNBKL,           uwoyskick_kick
    1345 0000d170                   JJXM    PUPPET,                 uwoyskick_kick
    1346 0000d1b0                   JJXM    PUPPET2,                uwoyskick_kick
    1347 0000d1f0                   JJXM    INAIR,                  uwoyskick_kick
    1348 0000d230                   JJXM    ATTACHED,        60, 50,uwoyskick_knee,uwoyskick_kick
    1349 0000d2e0                   JJXM    DEAD,           160,140,uwoyskick_stomp,uwoyskick_kick
    1350 0000d390                   JJXM    OPPOVERHEAD,     60, 50,uwoyskick_knee,uwoyskick_kick
    1351 0000d430                   JJXM    WAITANIM,        60, 50,uwoyskick_knee,uwoyskick_kick
    1352 0000d4d0                   JJXM    GRAPPLE,         60, 50,uwoyskick_knee,uwoyskick_kick
    1353 0000d570                   JJXM    MASTER,          60, 50,uwoyskick_knee,uwoyskick_kick
    1354 0000d610                   JJXM    SLAVE,           60, 50,uwoyskick_knee,uwoyskick_kick
    1355 0000d6b0                   JJXM    HEADHOLD,        60, 50,uwoyskick_knee,uwoyskick_kick
    1356 0000d750                   JJXM    HEADHELD,        60, 50,uwoyskick_knee,uwoyskick_kick
    1357 0000d7f0                   JJXM    CHOKEHOLD,       60, 50,uwoyskick_knee,uwoyskick_kick
    1358 0000d890                   JJXM    INAIR2,                 uwoykick_TB
    1359 0000d8e0                   JJXM_END
    1360                    
    1361                    
    1362 0000d900           uwoyskick_kick
    1363                    
    1364 0000d900                   FACE24  yok,superkick_anim
    1365 0000d9a0     0d5f          calla   change_anim1a
TMS340 COFF Macro Assembler Version 6.10     Mon Oct 30 16:55:16 2023
 Copyright (c) 1985-1991  Texas Instruments Incorporated 

meters, names, messages, and scores                                  PAGE   31

         0000d9b0 00000000! 
    1366                    
    1367 0000d9d0                   WRSND   W_YOKO,KICK_T1,KICK_T2
    1368 0000db70     0960          rets
    1369                    
    1370 0000db80           uwoyskick_knee
    1371                    
    1372 0000db80                   FACE24  yok,knee_anim
    1373 0000dc20     0d5f          calla   change_anim1a
         0000dc30 00000000! 
    1374                    
    1375 0000dc50                   WRSND   W_YOKO,KICK_T1,KICK_T2
    1376 0000ddf0     0960          rets
    1377                    
    1378 0000de00           uwoyskick_stomp
    1379                    
    1380 0000de00                   FACE24  yok,stomp_anim
    1381 0000dea0     0d5f          calla   change_anim1a
         0000deb0 00000000! 
    1382                    
    1383 0000ded0                   WRSND   W_YOKO,KICK_T1,KICK_T2
    1384 0000e070     0960          rets
    1385                    
    1386 0000e080           uwoyskick_scissor
    1387 0000e080     09e0          movi    yok_scissor_anim,a0
         0000e090 00000000! 
    1388 0000e0b0     0d5f          calla   change_anim1a
         0000e0c0 00000000! 
    1389                    
    1390 0000e0e0                   SETMODE INAIR
    1391                    
    1392 0000e190                   WRSND   W_YOKO,GRABFLING_T1,GRABFLING_T2
    1393                    
    1394 0000e330     0960          rets
    1395                    
    1396                    
    1397                    
    1398          00058000  fuamXRUN_VAL    equ     YOK_XRUN
    1399          00028000  fuamZDRIFT_VAL  equ     YOK_ZDRIFT
    1400                    
    1401 0000e340           mode_running
    1402                    
    1403 0000e340     b5a0          move    *a13(RUN_TIME),a0               ;Used for flying kick
         0000e350     07b0  
    1404 0000e360     1020          addk    1,a0
    1405 0000e370     b00d          move    a0,*a13(RUN_TIME)
         0000e380     07b0  
    1406                    
    1407 0000e390     b5a0          move    *a13(USR_VAR1),a0
         0000e3a0     0850  
    1408 0000e3b0     cb11          jrnz    fuamno_vel
    1409                    
    1410 0000e3c0     0d5f          calla   bounce_off_ropes
         0000e3d0 00000000! 
    1411                    
TMS340 COFF Macro Assembler Version 6.10     Mon Oct 30 16:55:16 2023
 Copyright (c) 1985-1991  Texas Instruments Incorporated 

meters, names, messages, and scores                                  PAGE   32

    1412 0000e3f0     09e0          movi    fuamXRUN_VAL,a0
         0000e400 00058000  
    1413 0000e420     b5ae          move    *a13(MOVE_DIR),a14
         0000e430     04b0  
    1414 0000e440     1f8e          btst    PLAYER_RIGHT_BIT,a14
    1415 0000e450     cb01          jrnz    fuampos
    1416 0000e460     03a0          neg     a0
    1417 0000e470           fuampos
    1418 0000e470     05ae          move    @hyper_speed_on,a14
         0000e480 00000000! 
    1419 0000e4a0     63c0          sll     a14,a0
    1420 0000e4b0     b20d          move    a0,*a13(OBJ_XVEL),L
         0000e4c0     02d0  
    1421                    
    1422 0000e4d0           fuamno_vel
    1423                    
    1424 0000e4d0     b5a0          move    *a13(GETUP_TIME),a0             ;delay b4 gaining control
         0000e4e0     0460  
    1425 0000e4f0     cb38          jrnz    fuamout_of_control
    1426                    
    1427 0000e500     b5a0          move    *a13(ANIMODE),a0
         0000e510     0660  
    1428 0000e520     1fa0          btst    MODE_UNINT_BIT,a0
    1429 0000e530     cb16          jrnz    fuamno_interrupt
    1430                    
    1431 0000e540     b5a0          move    *a13(STICK_VAL_CUR),a0
         0000e550     0bc0  
    1432 0000e560     b5a1          move    *a13(MOVE_DIR),a1
         0000e570     04b0  
    1433 0000e580     5401          or      a0,a1
    1434 0000e590     0b81          andi    MOVE_LEFT|MOVE_RIGHT,a1
         0000e5a0 fffffff3  
    1435 0000e5c0     0b41          cmpi    MOVE_LEFT|MOVE_RIGHT,a1
         0000e5d0     fff3  
    1436 0000e5e0     cb0b          jrne    fuamcontinue_run
    1437                    
    1438                            ;braking with stick.  abort run.
    1439                    
    1440 0000e5f0                   SETMODE NORMAL
    1441                    
    1442 0000e6a0           fuamcontinue_run
    1443 0000e6a0           fuamno_interrupt
    1444                    
    1445 0000e6a0     b5a0          move    *a13(STICK_VAL_CUR),a0
         0000e6b0     0bc0  
    1446 0000e6c0     5621          clr     a1
    1447                    
    1448 0000e6d0     09e1          movi    -fuamZDRIFT_VAL,a1
         0000e6e0 fffd8000  
    1449 0000e700     1fe0          btst    PLAYER_UP_BIT,a0
    1450 0000e710     cb06          jrnz    fuamsetvel
    1451                    
    1452 0000e720     09e1          movi    fuamZDRIFT_VAL,a1
         0000e730 00028000  
    1453 0000e750     1fc0          btst    PLAYER_DOWN_BIT,a0
TMS340 COFF Macro Assembler Version 6.10     Mon Oct 30 16:55:16 2023
 Copyright (c) 1985-1991  Texas Instruments Incorporated 

meters, names, messages, and scores                                  PAGE   33

    1454 0000e760     cb01          jrnz    fuamsetvel
    1455                    
    1456 0000e770     5621          clr     a1
    1457 0000e780           fuamsetvel
    1458 0000e780     b22d          move    a1,*a13(OBJ_ZVEL),L
         0000e790     0310  
    1459                    
    1460 0000e7a0     b5a0          move    *a13(DELAY_BUTNS),a0
         0000e7b0     0ab0  
    1461 0000e7c0     cb0b          jrnz    fuamout_of_control
    1462                    
    1463                    
    1464 0000e7d0     b5a0          move    *a13(BUT_VAL_DOWN),a0
         0000e7e0     0ba0  
    1465 0000e7f0     0b80          andi    011111b,a0
         0000e800 ffffffe0  
    1466 0000e820                   X32     a0
    1467 0000e830     0b20          addi    fuamaction_table,a0
         0000e840 0000e890' 
    1468 0000e860     8600          move    *a0,a0,L
    1469 0000e870     0920          call    a0
    1470 0000e880           fuamout_of_control
    1471 0000e880     0960          rets
    1472                    
    1473 0000e890           fuamaction_table
    1474 0000e890 0000ec90'         .long   fuamz,fuampunch,fuamblock,fuamblock                     ;0-3
    1475 0000e910 0000eca0'         .long   fuamsuper_punch,fuamsuper_punch,fuamblock,fuamblock     ;4-7
    1476 0000e990 0000f9c0'         .long   fuamkick,fuampunchkick,fuamblock,fuamblock              ;8-11
    1477 0000ea10 0000eca0'         .long   fuamsuper_punch,fuampunchkick,fuamblock,fuamblock       ;12-15
    1478 0000ea90 0000f9c0'         .long   fuamsuper_kick,fuamsuper_kick,fuamblock,fuamblock       ;16-19
    1479 0000eb10 0000eca0'         .long   fuamgraboh,fuamgraboh,fuamblock,fuamblock               ;20-23
    1480 0000eb90 0000f9c0'         .long   fuamsuper_kick,fuampunchkick,fuamblock,fuamblock        ;24-27
    1481 0000ec10 0000eca0'         .long   fuamgraboh,fuamgraboh,fuamblock,fuamblock               ;28-31
    1482                    
    1483 0000ec90           fuamz
    1484 0000ec90     0960          rets
    1485                    
    1486 0000eca0           fuampunch               ;1
    1487 0000eca0           fuamsuper_punch ;4
    1488 0000eca0           fuampunchkick
    1489 0000eca0           fuamgraboh
    1490                    
    1491 0000eca0                   JJXM_INIT
    1492 0000ed10                   JJXM    NORMAL,                 fuampunch_clobber
    1493 0000ed50                   JJXM    DIZZY,                  fuampunch_clobber
    1494 0000ed90                   JJXM    BLOCK,                  fuampunch_clobber
    1495 0000edd0                   JJXM    ONGROUND,               fuampunch_buttdrop
    1496 0000ee20                   JJXM    RUNNING,                fuampunch_clobber
    1497 0000ee60                   JJXM    BOUNCING,               fuampunch_clobber
    1498 0000eea0                   JJXM    ONTURNBKL,              fuampunch_clobber
    1499 0000eee0                   JJXM    CLIMBTURNBKL,           fuampunch_clobber
    1500 0000ef20                   JJXM    PUPPET,                 fuampunch_clobber
    1501 0000ef60                   JJXM    PUPPET2,                fuampunch_clobber
    1502 0000efa0                   JJXM    INAIR,                  fuampunch_clobber
    1503 0000efe0                   JJXM    ATTACHED,               fuampunch_clobber
TMS340 COFF Macro Assembler Version 6.10     Mon Oct 30 16:55:16 2023
 Copyright (c) 1985-1991  Texas Instruments Incorporated 

meters, names, messages, and scores                                  PAGE   34

    1504 0000f020                   JJXM    DEAD,                   fuampunch_buttdrop
    1505 0000f060                   JJXM    OPPOVERHEAD,            fuampunch_clobber
    1506 0000f0a0                   JJXM    WAITANIM,               fuampunch_clobber
    1507 0000f0e0                   JJXM    GRAPPLE,                fuampunch_clobber
    1508 0000f120                   JJXM    MASTER,                 fuampunch_clobber
    1509 0000f160                   JJXM    SLAVE,                  fuampunch_clobber
    1510 0000f1a0                   JJXM    HEADHOLD,               fuampunch_clobber
    1511 0000f1e0                   JJXM    HEADHELD,               fuampunch_clobber
    1512 0000f220                   JJXM    CHOKEHOLD,              fuampunch_clobber
    1513 0000f260                   JJXM    INAIR2,                 fuampunch_clobber
    1514 0000f2a0                   JJXM_END
    1515                    
    1516 0000f2c0     0960          rets
    1517                    
    1518 0000f2d0           fuampunch_clobber
    1519                    
    1520 0000f2d0     0d5f          calla   ck_ignore
         0000f2e0 00000000! 
    1521 0000f300     c800          jrc     fuamrets
         0000f310     00fb  
    1522                    
    1523 0000f320     5600          clr     a0
    1524 0000f330     b00d          move    a0,*a13(RUN_TIME)
         0000f340     07b0  
    1525                    
    1526 0000f350                   SETMODE NORMAL
    1527                    
    1528 0000f400                   FACE24  yok,run_slap_anim
    1529 0000f4a0     0d5f          calla   change_anim1a
         0000f4b0 00000000! 
    1530                    
    1531 0000f4d0                   WRSND   W_YOKO,PUNCH_T1,PUNCH_T2
    1532 0000f670     0960          rets
    1533                    
    1534                    
    1535 0000f680           fuampunch_rets
    1536 0000f680     0960          rets
    1537                    
    1538 0000f690           fuampunch_buttdrop
    1539                    
    1540 0000f690     09e0          movi    yok_3_butt_drop_anim,a0
         0000f6a0 00000000! 
    1541 0000f6c0     0d5f          calla   change_anim1a
         0000f6d0 00000000! 
    1542 0000f6f0                   WRSND   W_YOKO,GRABTHROW_T1,GRABTHROW_T2
    1543 0000f890     0960          rets
    1544                    
    1545                    
    1546 0000f8a0           fuamblock               ;2
    1547                    
    1548 0000f8a0     b7a0          move    *a13(OBJ_XVEL),a0,L
         0000f8b0     02d0  
    1549 0000f8c0     2be0          sra     1,a0
    1550 0000f8d0     b20d          move    a0,*a13(OBJ_XVEL),L
         0000f8e0     02d0  
TMS340 COFF Macro Assembler Version 6.10     Mon Oct 30 16:55:16 2023
 Copyright (c) 1985-1991  Texas Instruments Incorporated 

meters, names, messages, and scores                                  PAGE   35

    1551 0000f8f0                   SETMODE NORMAL
    1552 0000f9a0     c000          jruc    std_block
         0000f9b0     f999  
    1553                    
    1554 0000f9c0           fuamkick                ;8
    1555 0000f9c0           fuamsuper_kick  ;16
    1556                    
    1557 0000f9c0                   JJXM_INIT
    1558 0000fa30                   JJXM    NORMAL,                 fuamscissor
    1559 0000fa70                   JJXM    DIZZY,                  fuamscissor
    1560 0000fab0                   JJXM    BLOCK,                  fuamscissor
    1561 0000faf0                   JJXM    ONGROUND,               fuampunch_buttdrop
    1562 0000fb30                   JJXM    RUNNING,                fuamscissor
    1563 0000fb70                   JJXM    BOUNCING,               fuamscissor
    1564 0000fbb0                   JJXM    ONTURNBKL,              fuamscissor
    1565 0000fbf0                   JJXM    CLIMBTURNBKL,           fuamscissor
    1566 0000fc30                   JJXM    PUPPET,                 fuamscissor
    1567 0000fc70                   JJXM    PUPPET2,                fuamscissor
    1568 0000fcb0                   JJXM    INAIR,                  fuamscissor
    1569 0000fcf0                   JJXM    ATTACHED,               fuamscissor
    1570 0000fd30                   JJXM    DEAD,                   fuampunch_buttdrop
    1571 0000fd70                   JJXM    OPPOVERHEAD,            fuamscissor
    1572 0000fdb0                   JJXM    WAITANIM,               fuamscissor
    1573 0000fdf0                   JJXM    GRAPPLE,                fuamscissor
    1574 0000fe30                   JJXM    MASTER,                 fuamscissor
    1575 0000fe70                   JJXM    SLAVE,                  fuamscissor
    1576 0000feb0                   JJXM    HEADHOLD,               fuamscissor
    1577 0000fef0                   JJXM    HEADHELD,               fuamscissor
    1578 0000ff30                   JJXM    CHOKEHOLD,              fuamscissor
    1579 0000ff70                   JJXM    INAIR2,                 fuamscissor
    1580 0000ffb0                   JJXM_END
    1581                    
    1582 0000ffd0     0960          rets
    1583                    
    1584 0000ffe0           fuamscissor
    1585 0000ffe0     0d5f          calla   ck_ignore
         0000fff0 00000000! 
    1586 00010010     c82b          jrc     fuamrets
    1587                    
    1588 00010020     09e0          movi    yok_scissor_anim,a0
         00010030 00000000! 
    1589 00010050     0d5f          calla   change_anim1a
         00010060 00000000! 
    1590                    
    1591 00010080                   SETMODE INAIR
    1592                    
    1593 00010130                   WRSND   W_YOKO,GRABHOLD_T1,GRABHOLD_T2
    1594 000102d0           fuamrets
    1595                    
    1596                    
    1597                    
    1598 000102d0           mode_inair      ;2
    1599                    
    1600 000102d0     0960          rets
    1601                    
TMS340 COFF Macro Assembler Version 6.10     Mon Oct 30 16:55:16 2023
 Copyright (c) 1985-1991  Texas Instruments Incorporated 

meters, names, messages, and scores                                  PAGE   36

    1602                    
    1603 000102e0           mode_attached   ;3
    1604                    
    1605 000102e0     0d5f          calla   keep_attached
         000102f0 00000000! 
    1606 00010310     cb12          jrnz    cuzystill_attached
    1607                    
    1608 00010320     5600          clr     a0
    1609 00010330     b20d          move    a0,*a13(ATTACH_PROC),L
         00010340     03e0  
    1610                    
    1611 00010350                   SETMODE NORMAL
    1612                    
    1613 00010400     09c0          movi    MODE_NORMAL,a0
         00010410     0000  
    1614 00010420     b00d          move    a0,*a13(ANIMODE)
         00010430     0660  
    1615                    
    1616 00010440           cuzystill_attached
    1617 00010440     0960          rets
    1618                    
    1619 00010450           mode_onground   ;4
    1620                    
    1621 00010450     0960          rets
    1622                    
    1623                    
    1624                    
    1625 00010460           mode_bouncing   ;5
    1626                    
    1627 00010460     5600          clr     a0
    1628 00010470     b20d          move    a0,*a13(OBJ_XVEL),L
         00010480     02d0  
    1629 00010490     b20d          move    a0,*a13(OBJ_ZVEL),L
         000104a0     0310  
    1630                    
    1631 000104b0     b5a0          move    *a13(ANIMODE),a0
         000104c0     0660  
    1632 000104d0     1fe0          btst    MODE_END_BIT,a0
    1633 000104e0     ca20          jrz     ijhqnot_ended
    1634                    
    1635 000104f0     b5a0          move    *a13(MOVE_DIR),a0
         00010500     04b0  
    1636 00010510     0bc0          xori    MOVE_LEFT+MOVE_RIGHT,a0 ;flip LEFT/RIGHT
         00010520 0000000c  
    1637 00010540     b00d          move    a0,*a13(MOVE_DIR)
         00010550     04b0  
    1638                    
    1639 00010560     b5a1          move    *a13(NEW_FACING_DIR),a1
         00010570     04d0  
    1640 00010580     0b81          andi    MOVE_UP+MOVE_DOWN,a1
         00010590 fffffffc  
    1641 000105b0     5401          or      a0,a1                   ;LEFT or RIGHT
    1642 000105c0     b02d          move    a1,*a13(FACING_DIR)     ;face same dir as run
         000105d0     04c0  
    1643                    
TMS340 COFF Macro Assembler Version 6.10     Mon Oct 30 16:55:16 2023
 Copyright (c) 1985-1991  Texas Instruments Incorporated 

meters, names, messages, and scores                                  PAGE   37

    1644 000105e0     09e0          movi    yok_run2_anim,a0
         000105f0 00000000! 
    1645 00010610     0d5f          calla   change_anim1a
         00010620 00000000! 
    1646                    
    1647 00010640                   SETMODE RUNNING
    1648                    
    1649                    
    1650 000106f0           ijhqnot_ended
    1651 000106f0     0960          rets
    1652                    
    1653                    
    1654 00010700           mode_onturnbkl  ;6
    1655                    
    1656                    
    1657 00010700     b5a0          move    *a13(STICK_VAL_CUR),a0
         00010710     0bc0  
    1658 00010720     1fc0          btst    PLAYER_DOWN_BIT,a0
    1659 00010730     ca12          jrz     ugbeno_climbdown
    1660                    
    1661 00010740     09e0          movi    yok_climb_down_anim,a0
         00010750 00000000! 
    1662 00010770     0d5f          calla   change_anim1a
         00010780 00000000! 
    1663                    
    1664 000107a0                   SETMODE CLIMBTURNBKL
    1665                    
    1666 00010850           ugbeno_interrupt
    1667 00010850     0960          rets
    1668                    
    1669 00010860           ugbeno_climbdown
    1670 00010860     b5a0          move    *a13(BUT_VAL_DOWN),a0
         00010870     0ba0  
    1671 00010880     0b80          andi    011111b,a0
         00010890 ffffffe0  
    1672 000108b0     ca51          jrz     ugbez
    1673                    
    1674 000108c0                   X32     a0
    1675 000108d0     0b20          addi    ugbeaction_table,a0
         000108e0 000109d0' 
    1676 00010900     8600          move    *a0,a0,L
    1677 00010910     0920          call    a0
    1678                    
    1679 00010920     b5a5          move    *a13(PLYRNUM),a5
         00010930     0580  
    1680 00010940     09e2          movi    JUMP_ROPES,a2
         00010950 00000000! 
    1681 00010970     09c0          movi    1000,a0
         00010980     03e8  
    1682 00010990     0d5f          calla   ADD_IF_SILENT
         000109a0 00000000! 
    1683                    
    1684 000109c0     0960          rets
    1685                    
    1686                    
TMS340 COFF Macro Assembler Version 6.10     Mon Oct 30 16:55:16 2023
 Copyright (c) 1985-1991  Texas Instruments Incorporated 

meters, names, messages, and scores                                  PAGE   38

    1687                    
    1688 000109d0           ugbeaction_table
    1689 000109d0 00010dd0'         .long   ugbez,ugbepunch,ugbeblock,ugbeblock                     ;0-3
    1690 00010a50 00010de0'         .long   ugbesuper_punch,ugbesuper_punch,ugbeblock,ugbeblock     ;4-7
    1691 00010ad0 00010de0'         .long   ugbekick,ugbepunchkick,ugbeblock,ugbeblock              ;8-11
    1692 00010b50 00010de0'         .long   ugbesuper_punch,ugbepunchkick,ugbeblock,ugbeblock       ;12-15
    1693 00010bd0 00010de0'         .long   ugbesuper_kick,ugbesuper_kick,ugbeblock,ugbeblock       ;16-19
    1694 00010c50 00010de0'         .long   ugbegraboh,ugbegraboh,ugbeblock,ugbeblock               ;20-23
    1695 00010cd0 00010de0'         .long   ugbesuper_kick,ugbepunchkick,ugbeblock,ugbeblock        ;24-27
    1696 00010d50 00010de0'         .long   ugbegraboh,ugbegraboh,ugbeblock,ugbeblock               ;28-31
    1697                    
    1698                    
    1699 00010dd0           ugbez
    1700 00010dd0     0960          rets
    1701                    
    1702 00010de0           ugbepunch               ;1
    1703 00010de0           ugbeblock               ;2
    1704 00010de0           ugbesuper_punch ;4
    1705 00010de0           ugbepunchkick   ;5
    1706 00010de0           ugbekick                ;8
    1707 00010de0           ugbesuper_kick  ;16
    1708 00010de0           ugbegraboh              ;20
    1709                    
    1710 00010de0                   SETMODE INAIR
    1711                    
    1712 00010e90     09e0          movi    yok_tbukl_buttdrop_anim,a0
         00010ea0 00000000! 
    1713 00010ec0     0d5f          calla   change_anim1a
         00010ed0 00000000! 
    1714                    
    1715 00010ef0                   WRSND   W_YOKO,TURNDIVE_T1,TURNDIVE_T2
    1716                    
    1717 00011090     0960          rets
    1718                    
    1719                    
    1720 000110a0           mode_block      ;7
    1721                    
    1722 000110a0     b5a0          move    *a13(BLOCK_TIME),a0
         000110b0     0d30  
    1723 000110c0     1020          inc     a0
    1724 000110d0     b00d          move    a0,*a13(BLOCK_TIME)
         000110e0     0d30  
    1725 000110f0     0b40          cmpi    160,a0
         00011100     ff5f  
    1726 00011110     c413          jrlt    upgzno
    1727                    
    1728 00011120     0d5f          calla   get_opp_plyrmode
         00011130 00000000! 
    1729 00011150     0b40          cmpi    MODE_BLOCK,a0
         00011160     fff8  
    1730 00011170     cb0d          jrnz    upgzno
    1731 00011180     b5a0          move    *a13(CLOSEST_XDIST),a0
         00011190     0370  
    1732 000111a0     0b40          cmpi    61h,a0
         000111b0     ff9e  
TMS340 COFF Macro Assembler Version 6.10     Mon Oct 30 16:55:16 2023
 Copyright (c) 1985-1991  Texas Instruments Incorporated 

meters, names, messages, and scores                                  PAGE   39

    1733 000111c0     c508          jrge    upgzno
    1734 000111d0     0b40          cmpi    45,a0
         000111e0     ffd2  
    1735 000111f0     c405          jrlt    upgzno
    1736 00011200     b5a0          move    *a13(CLOSEST_ZDIST),a0
         00011210     0390  
    1737 00011220     0b40          cmpi    30,a0
         00011230     ffe1  
    1738 00011240     c461          jrlt    upgzpunchblock
    1739                    
    1740 00011250           upgzno
    1741 00011250     b5a0          move    *a13(BUT_VAL_DOWN),a0
         00011260     0ba0  
    1742 00011270     0b80          andi    011111b,a0
         00011280 ffffffe0  
    1743 000112a0     ca0c          jrz     upgzno_interrupt
    1744                    
    1745                            ;press.  if block isn't down, let mode_normal handle it
    1746 000112b0     4c02          move    a0,a2                   ;save a0 from ...val_down
    1747 000112c0     b5a0          move    *a13(BUT_VAL_CUR),a0
         000112d0     0b90  
    1748 000112e0     1fc0          btst    PLAYER_BLOCK_BIT,a0
    1749 000112f0     ca08          jrz     upgzset_mode_normal
    1750 00011300     4c40          move    a2,a0                   ;restore a0 from ...val_down
    1751                    
    1752 00011310                   X32     a0
    1753 00011320     0b20          addi    upgzaction_table,a0
         00011330 00011450' 
    1754 00011350     8600          move    *a0,a0,L
    1755 00011360     0920          call    a0
    1756                    
    1757 00011370           upgzno_interrupt
    1758 00011370     0960          rets
    1759                    
    1760 00011380           upgzset_mode_normal
    1761 00011380                   SETMODE NORMAL
    1762 00011430     c000          jruc    mode_normal
         00011440     f56f  
    1763                    
    1764 00011450           upgzaction_table
    1765 00011450 00011850'         .long   upgzz,upgzpunchblock,upgzz      ;0-2
    1766 000114b0 00011860'         .long   upgzpunchblock          ;3
    1767 000114d0 00011850'         .long   upgzz,upgzz,upgzz,upgzz,upgzz,upgzz,upgzz       ;4-10
    1768 000115b0 00011850'         .long   upgzz,upgzz,upgzz,upgzz,upgzz,upgzz,upgzz       ;11-17
    1769 00011690 00011850'         .long   upgzz,upgzz,upgzz,upgzz,upgzz,upgzz,upgzz       ;18-24
    1770 00011770 00011850'         .long   upgzz,upgzz,upgzz,upgzz,upgzz,upgzz,upgzz       ;25-31
    1771                    
    1772 00011850           upgzz
    1773 00011850     0960          rets
    1774                    
    1775 00011860           upgzpunchblock  ;3
    1776                    
    1777                    
    1778 00011860                   SETMODE NORMAL
    1779                    
TMS340 COFF Macro Assembler Version 6.10     Mon Oct 30 16:55:16 2023
 Copyright (c) 1985-1991  Texas Instruments Incorporated 

meters, names, messages, and scores                                  PAGE   40

    1780 00011910     09e0          movi    yok_4_push_anim,a0
         00011920 00000000! 
    1781 00011940     0d5f          calla   change_anim1a
         00011950 00000000! 
    1782                    
    1783 00011970                   WRSND   W_YOKO,PUSH_T1,PUSH_T2
    1784                    
    1785 00011b10     0960          rets
    1786                    
    1787                    
    1788 00011b20           mode_dizzy      ;8
    1789                    
    1790 00011b20     0960          rets
    1791                    
    1792                    
    1793                    
    1794 00011b30           mode_oppoverhead ;10
    1795                    
    1796 00011b30     b7a2          move    *a13(ATTACH_PROC),a2,L          ;proc attached to
         00011b40     03e0  
    1797 00011b50     ca03          jrz     vgsanot_attached
    1798 00011b60     b640          move    *a2(ATTACH_PROC),a0,L
         00011b70     03e0  
    1799 00011b80     cb1a          jrnz    vgsastill_attached
    1800                    
    1801 00011b90           vgsanot_attached
    1802                    
    1803 00011b90     b5a0          move    *a13(ANIMODE),a0                ;* remove this????
         00011ba0     0660  
    1804 00011bb0     1fa0          btst    MODE_UNINT_BIT,a0               ;*
    1805 00011bc0     cb4d          jrnz    vgsano_interrupt                        ;*
    1806                    
    1807 00011bd0     5600          clr     a0
    1808 00011be0     b20d          move    a0,*a13(ATTACH_PROC),L
         00011bf0     03e0  
    1809                    
    1810 00011c00     0d5f          CALLA   FIND_AND_KILL_ENDLESS
         00011c10 00000000! 
    1811 00011c30                   SETMODE NORMAL
    1812                    
    1813 00011ce0     09c0          movi    MODE_NORMAL,a0
         00011cf0     0000  
    1814 00011d00     b00d          move    a0,*a13(ANIMODE)
         00011d10     0660  
    1815                    
    1816 00011d20     0960          rets
    1817                    
    1818 00011d30           vgsastill_attached
    1819 00011d30     b5a0          move    *a13(ANIMODE),a0
         00011d40     0660  
    1820 00011d50     1fa0          btst    MODE_UNINT_BIT,a0
    1821 00011d60     cb33          jrnz    vgsano_interrupt
    1822                    
    1823 00011d70     b5a0          move    *a13(FACING_DIR),a0
         00011d80     04c0  
TMS340 COFF Macro Assembler Version 6.10     Mon Oct 30 16:55:16 2023
 Copyright (c) 1985-1991  Texas Instruments Incorporated 

meters, names, messages, and scores                                  PAGE   41

    1824 00011d90     0b80          andni   MOVE_UP,a0
         00011da0 00000001  
    1825 00011dc0     0ba0          ori     MOVE_DOWN,a0
         00011dd0 00000002  
    1826 00011df0     b00d          move    a0,*a13(FACING_DIR)
         00011e00     04c0  
    1827 00011e10     b00d          move    a0,*a13(NEW_FACING_DIR)
         00011e20     04d0  
    1828                    
    1829 00011e30     b5a0          move    *a13(STICK_VAL_CUR),a0
         00011e40     0bc0  
    1830 00011e50     ca0c          jrz     vgsastand
    1831                    
    1832 00011e60     b00d          move    a0,*a13(MOVE_DIR)
         00011e70     04b0  
    1833 00011e80     0d5f          calla   execute_walk
         00011e90 00000000! 
    1834                    
    1835 00011eb0     09e0          movi    yok_holdoh_anim,a0
         00011ec0 00000000! 
    1836 00011ee0     0d5f          calla   change_anim2
         00011ef0 00000000! 
    1837 00011f10     c00d          jruc    vgsack_butns
    1838 00011f20           vgsastand
    1839 00011f20     5600          clr     a0
    1840 00011f30     b00d          move    a0,*a13(MOVE_DIR)
         00011f40     04b0  
    1841 00011f50     b20d          move    a0,*a13(OBJ_XVEL),L
         00011f60     02d0  
    1842 00011f70     b20d          move    a0,*a13(OBJ_ZVEL),L
         00011f80     0310  
    1843                    
    1844 00011f90     09e0          movi    yok_stndholdoh_anim,a0
         00011fa0 00000000! 
    1845 00011fc0     0d5f          calla   change_anim1
         00011fd0 00000000! 
    1846                    
    1847 00011ff0           vgsack_butns
    1848                    
    1849 00011ff0     b5a0          move    *a13(BUT_VAL_DOWN),a0
         00012000     0ba0  
    1850 00012010     0b80          andi    011111b,a0
         00012020 ffffffe0  
    1851 00012040                   X32     a0
    1852 00012050     0b20          addi    vgsaaction_table,a0
         00012060 000120b0' 
    1853 00012080     8600          move    *a0,a0,L
    1854 00012090     0920          call    a0
    1855                    
    1856 000120a0           vgsano_interrupt
    1857 000120a0     0960          rets
    1858                    
    1859 000120b0           vgsaaction_table
    1860 000120b0 000124b0'         .long   vgsaz,vgsapunch,vgsablock,vgsablock                     ;0-3
    1861 00012130 00012920'         .long   vgsasuper_punch,vgsasuper_punch,vgsablock,vgsablock     ;4-7
TMS340 COFF Macro Assembler Version 6.10     Mon Oct 30 16:55:16 2023
 Copyright (c) 1985-1991  Texas Instruments Incorporated 

meters, names, messages, and scores                                  PAGE   42

    1862 000121b0 000124c0'         .long   vgsakick,vgsapunchkick,vgsablock,vgsablock              ;8-11
    1863 00012230 00012920'         .long   vgsasuper_punch,vgsapunchkick,vgsablock,vgsablock       ;12-15
    1864 000122b0 000124c0'         .long   vgsasuper_kick,vgsasuper_kick,vgsablock,vgsablock       ;16-19
    1865 00012330 000124c0'         .long   vgsagraboh,vgsagraboh,vgsablock,vgsablock               ;20-23
    1866 000123b0 000124c0'         .long   vgsasuper_kick,vgsapunchkick,vgsablock,vgsablock        ;24-27
    1867 00012430 000124c0'         .long   vgsagraboh,vgsagraboh,vgsablock,vgsablock               ;28-31
    1868                    
    1869 000124b0           vgsaz
    1870 000124b0     0960          rets
    1871                    
    1872 000124c0           vgsapunch               ;1
    1873 000124c0           vgsablock               ;2
    1874 000124c0           vgsakick                ;8
    1875 000124c0           vgsasuper_kick  ;16
    1876 000124c0           vgsapunchkick
    1877 000124c0           vgsagraboh
    1878                    
    1879 000124c0     b5a0          move    *a13(STICK_VAL_CUR),a0
         000124d0     0bc0  
    1880 000124e0     1fc0          btst    PLAYER_DOWN_BIT,a0
    1881 000124f0     ca21          jrz     vgsaslam
    1882                    
    1883 00012500     09e0          movi    yok_spinslam_anim,a0
         00012510 00000000! 
    1884 00012530     0d5f          calla   change_anim1a
         00012540 00000000! 
    1885                    
    1886 00012560                   WRSND   W_YOKO,HIPTOSS_T1,HIPTOSS_T2
    1887                    
    1888 00012700     0960          rets
    1889 00012710           vgsaslam
    1890 00012710     09e0          movi    yok_overhd_slam_anim,a0
         00012720 00000000! 
    1891 00012740     0d5f          calla   change_anim1a
         00012750 00000000! 
    1892                    
    1893 00012770                   WRSND   W_YOKO,HIPTOSS_T1,HIPTOSS_T2
    1894                    
    1895 00012910     0960          rets
    1896                    
    1897 00012920           vgsasuper_punch ;4
    1898                    
    1899 00012920     b5a0          move    *a13(STICK_VAL_CUR),a0
         00012930     0bc0  
    1900 00012940     1fe0          btst    PLAYER_UP_BIT,a0
    1901 00012950     cab6          jrz     vgsapunch
    1902                    
    1903 00012960     0d5f          CALLA   FIND_AND_KILL_ENDLESS
         00012970 00000000! 
    1904                            .ref    yok_overhd_slam2_anim
    1905 00012990     09e0          movi    yok_overhd_slam2_anim,a0
         000129a0 00000000! 
    1906 000129c0     0d5f          calla   change_anim1a
         000129d0 00000000! 
    1907                    
TMS340 COFF Macro Assembler Version 6.10     Mon Oct 30 16:55:16 2023
 Copyright (c) 1985-1991  Texas Instruments Incorporated 

meters, names, messages, and scores                                  PAGE   43

    1908 000129f0                   WRSND   W_YOKO,HIPTOSS_T1,HIPTOSS_T2
    1909                    
    1910 00012b90     0960          rets
    1911                    
    1912                    
    1913 00012ba0           mode_climbturnbkl       ;11
    1914                    
    1915 00012ba0     0960          rets
    1916                    
    1917                    
    1918                    
    1919 00012bb0           mode_waitanim   ;12
    1920                    
    1921 00012bb0     b5a0          move    *a13(ANIMODE),a0
         00012bc0     0660  
    1922 00012bd0     1fe0          btst    MODE_END_BIT,a0
    1923 00012be0     ca03          jrz     pcxvnot_ended
    1924                    
    1925 00012bf0     b7a0          move    *a13(CODE_ADDR),a0,L
         00012c00     0430  
    1926 00012c10     0920          call    a0
    1927                    
    1928 00012c20           pcxvnot_ended
    1929 00012c20     0960          rets
    1930                    
    1931                    
    1932                    
    1933 00012c30           mode_grapple    ;13
    1934 00012c30     0960          rets
    1935                    
    1936                    
    1937                    
    1938 00012c40           mode_master     ;14
    1939                    
    1940 00012c40     0d5f          calla   master_keep_attached    ;keep slave attached to me
         00012c50 00000000! 
    1941                    
    1942 00012c70     0960          rets
    1943                    
    1944                    
    1945 00012c80           mode_slave      ;15
    1946 00012c80     0960          rets
    1947                    
    1948                    
    1949 00012c90           mode_headhold   ;16
    1950                    
    1951                            .ref    bozo_check
    1952 00012c90     0d5f          calla   bozo_check
         00012ca0 00000000! 
    1953 00012cc0     c929          jrnc    rbsrfail
    1954                    
    1955 00012cd0                   WRSND   W_YOKO,GRABFLING_T1,GRABFLING_T2
    1956                    
    1957 00012e70     09e0          movi    yok_vsuplex_anim,a0
         00012e80 00000000! 
TMS340 COFF Macro Assembler Version 6.10     Mon Oct 30 16:55:16 2023
 Copyright (c) 1985-1991  Texas Instruments Incorporated 

meters, names, messages, and scores                                  PAGE   44

    1958 00012ea0     05ae          move    @PCNT,a14
         00012eb0 00000000! 
    1959 00012ed0     1fee          btst    0,a14
    1960 00012ee0     ca03          jrz     rbsrtag
    1961 00012ef0     09e0          movi    yok_scissor_anim,a0
         00012f00 00000000! 
    1962 00012f20     0d5f  rbsrtag calla   change_anim1a
         00012f30 00000000! 
    1963                    
    1964 00012f50     0960          rets
    1965                    
    1966 00012f60           rbsrfail
    1967 00012f60     b7a0          move    *a13(WHOIHIT),a0,L
         00012f70     0500  
    1968 00012f80     b400          move    *a0(PLYRMODE),a0
         00012f90     05c0  
    1969 00012fa0     0b40          cmpi    MODE_HEADHELD,a0
         00012fb0     ffec  
    1970 00012fc0     cb10          jrnz    rbsrexit
    1971                    
    1972                    
    1973 00012fd0     b5a0          move    *a13(ANIMODE),a0
         00012fe0     0660  
    1974 00012ff0     1fa0          btst    MODE_UNINT_BIT,a0
    1975 00013000     cb0b          jrnz    rbsrno_interrupt
    1976                    
    1977 00013010     b5a0          move    *a13(BUT_VAL_DOWN),a0
         00013020     0ba0  
    1978 00013030     0b80          andi    011111b,a0
         00013040 ffffffe0  
    1979 00013060                   X32     a0
    1980 00013070     0b20          addi    rbsraction_table,a0
         00013080 000132a0' 
    1981 000130a0     8600          move    *a0,a0,L
    1982 000130b0     0920          call    a0
    1983                    
    1984 000130c0           rbsrno_interrupt
    1985 000130c0     0960          rets
    1986                    
    1987 000130d0           rbsrexit
    1988 000130d0     b7ae          move    *a13(OBJ_ZPOS),a14,L
         000130e0     0140  
    1989 000130f0     0d0e          subi    [6,0],a14
         00013100 fff9ffff  
    1990 00013120     b3cd          move    a14,*a13(OBJ_ZPOS),L
         00013130     0140  
    1991                    
    1992 00013140     1941          movk    MOVE_DOWN_RIGHT,a1
    1993 00013150     b5a0          move    *a13(OBJ_CONTROL),a0
         00013160     0780  
    1994 00013170     1f60          btst    B_FLIPH,a0
    1995 00013180     ca01          jrz     rbsrright
    1996 00013190     18c1          movk    MOVE_DOWN_LEFT,a1
    1997 000131a0     b02d  rbsrright       move    a1,*a13(FACING_DIR)
         000131b0     04c0  
TMS340 COFF Macro Assembler Version 6.10     Mon Oct 30 16:55:16 2023
 Copyright (c) 1985-1991  Texas Instruments Incorporated 

meters, names, messages, and scores                                  PAGE   45

    1998 000131c0     b02d          move    a1,*a13(NEW_FACING_DIR)
         000131d0     04d0  
    1999                    
    2000 000131e0                   SETMODE NORMAL
    2001                    
    2002 00013290     0960          rets
    2003                    
    2004 000132a0           rbsraction_table
    2005 000132a0 000136a0'         .long   rbsrz,rbsrpunch,rbsrblock,rbsrblock                     ;0-3
    2006 00013320 00013b90'         .long   rbsrsuper_punch,rbsrsuper_punch,rbsrblock,rbsrblock     ;4-7
    2007 000133a0 00013ec0'         .long   rbsrkick,rbsrpunchkick,rbsrblock,rbsrblock              ;8-11
    2008 00013420 00013b90'         .long   rbsrsuper_punch,rbsrpunchkick,rbsrblock,rbsrblock       ;12-15
    2009 000134a0 00014350'         .long   rbsrsuper_kick,rbsrsuper_kick,rbsrblock,rbsrblock       ;16-19
    2010 00013520 000136a0'         .long   rbsrgraboh,rbsrgraboh,rbsrblock,rbsrblock               ;20-23
    2011 000135a0 00014350'         .long   rbsrsuper_kick,rbsrpunchkick,rbsrblock,rbsrblock        ;24-27
    2012 00013620 000136a0'         .long   rbsrgraboh,rbsrgraboh,rbsrblock,rbsrblock               ;28-31
    2013                    
    2014 000136a0           rbsrblock
    2015 000136a0           rbsrgraboh
    2016 000136a0           rbsrz           ;0
    2017 000136a0     0960          rets
    2018                    
    2019                    
    2020 000136b0           rbsrpunch               ;1
    2021 000136b0     0d5f          CALLA   FIND_AND_KILL_ENDLESS
         000136c0 00000000! 
    2022 000136e0     b5a0          move    *a13(STICK_VAL_CUR),a0
         000136f0     0bc0  
    2023 00013700     b5a1          move    *a13(NEW_FACING_DIR),a1
         00013710     04d0  
    2024 00013720     0b81          andi    0ch,a1
         00013730 fffffff3  
    2025 00013750     4801          cmp     a0,a1
    2026 00013760     cb21          jrnz    rbsrtag2
    2027                            .ref    yok_4_knee2_anim
    2028 00013770     09e0          movi    yok_4_knee2_anim,a0
         00013780 00000000! 
    2029 000137a0     0d5f          calla   change_anim1a
         000137b0 00000000! 
    2030                    
    2031 000137d0                   WRSND   W_YOKO,KICK_T1,KICK_T2
    2032                    
    2033 00013970     0960          rets
    2034                    
    2035                    
    2036 00013980           rbsrtag2
    2037 00013980     09e0          movi    yok_4_knee2_anim,a0
         00013990 00000000! 
    2038 000139b0     0d5f          calla   change_anim1a
         000139c0 00000000! 
    2039 000139e0                   WRSND   W_YOKO,KICK_T1,KICK_T2
    2040 00013b80     0960          rets
    2041                    
    2042 00013b90           rbsrsuper_punch ;4
    2043                    
TMS340 COFF Macro Assembler Version 6.10     Mon Oct 30 16:55:16 2023
 Copyright (c) 1985-1991  Texas Instruments Incorporated 

meters, names, messages, and scores                                  PAGE   46

    2044 00013b90           rbsrupper
    2045 00013b90     b5a0          move    *a13(STICK_VAL_CUR),a0
         00013ba0     0bc0  
    2046 00013bb0     1fc0          btst    PLAYER_DOWN_BIT,a0
    2047 00013bc0     caad          jrz     rbsrz
    2048                    
    2049 00013bd0     0d5f          CALLA   FIND_AND_KILL_ENDLESS
         00013be0 00000000! 
    2050                    
    2051 00013c00                   SPCDMG  D_UPRCUT/2,15
    2052                    
    2053 00013cb0     09e0          movi    yok_4_uppercut_anim,a0
         00013cc0 00000000! 
    2054 00013ce0     0d5f          calla   change_anim1a
         00013cf0 00000000! 
    2055 00013d10                   WRSND   W_YOKO,UPRCUT_T1,UPRCUT_T2
    2056 00013eb0     0960          rets
    2057                    
    2058 00013ec0           rbsrpunchkick
    2059 00013ec0           rbsrkick
    2060 00013ec0     0d5f          CALLA   FIND_AND_KILL_ENDLESS
         00013ed0 00000000! 
    2061 00013ef0     b5a0          move    *a13(STICK_VAL_CUR),a0
         00013f00     0bc0  
    2062 00013f10     1fc0          btst    PLAYER_DOWN_BIT,a0
    2063 00013f20     ca21          jrz     rbsrknee
    2064                    
    2065 00013f30     09e0          movi    yok_4_knee2_anim,a0
         00013f40 00000000! 
    2066 00013f60     0d5f          calla   change_anim1a
         00013f70 00000000! 
    2067 00013f90                   WRSND   W_YOKO,KICK_T1,KICK_T2
    2068 00014130     0960          rets
    2069                    
    2070 00014140           rbsrknee
    2071 00014140           std_4_knee
    2072 00014140     09e0          movi    yok_4_knee2_anim,a0
         00014150 00000000! 
    2073 00014170     0d5f          calla   change_anim1a
         00014180 00000000! 
    2074 000141a0                   WRSND   W_YOKO,KICK_T1,KICK_T2
    2075 00014340     0960          rets
    2076                    
    2077 00014350           rbsrsuper_kick  ;16
    2078 00014350     0d5f          CALLA   FIND_AND_KILL_ENDLESS
         00014360 00000000! 
    2079 00014380     b5a0          move    *a13(STICK_VAL_CUR),a0
         00014390     0bc0  
    2080 000143a0     b5a1          move    *a13(NEW_FACING_DIR),a1
         000143b0     04d0  
    2081 000143c0     0b81          andi    0ch,a1
         000143d0 fffffff3  
    2082 000143f0     4801          cmp     a0,a1
    2083 00014400     cbab          jrnz    rbsrkick
    2084                    
TMS340 COFF Macro Assembler Version 6.10     Mon Oct 30 16:55:16 2023
 Copyright (c) 1985-1991  Texas Instruments Incorporated 

meters, names, messages, and scores                                  PAGE   47

    2085 00014410     09e0          movi    yok_4_knee2_anim,a0
         00014420 00000000! 
    2086 00014440     0d5f          calla   change_anim1a
         00014450 00000000! 
    2087 00014470                   WRSND   W_YOKO,KICK_T1,KICK_T2
    2088 00014610     0960          rets
    2089                    
    2090                    
    2091 00014620           mode_puppet2    ;17
    2092                    
    2093 00014620     0960          rets
    2094                    
    2095                    
    2096 00014630           mode_headheld   ;19
    2097                    
    2098 00014630     b5a0          move    *a13(ANIMODE),a0
         00014640     0660  
    2099 00014650     1f40          btst    MODE_NOGRAVITY_BIT,a0
    2100 00014660     cb80          janz    mode_choking
         00014670 00000000! 
    2101                    
    2102 00014690     0d5f          calla   bozo_check
         000146a0 00000000! 
    2103 000146c0     c932          jrnc    pjhwfail
    2104                    
    2105 000146d0                   PUSH    a8
    2106 000146e0     4da8          move    a13,a8
    2107 000146f0     0d5f          CALLA   DO_REVERSAL
         00014700 00000000! 
    2108 00014720     0d5f          CALLA   DO_REVERSAL_MESS
         00014730 00000000! 
    2109 00014750                   PULL    a8
    2110                    
    2111 00014760                   WRSND   W_YOKO,GRABFLING_T1,GRABFLING_T2
    2112                    
    2113 00014900     09e0          movi    yok_vsuplex_anim,a0
         00014910 00000000! 
    2114 00014930     05ae          move    @PCNT,a14
         00014940 00000000! 
    2115 00014960     1fee          btst    0,a14
    2116 00014970     ca03          jrz     pjhwtag
    2117 00014980     09e0          movi    yok_scissor_anim,a0
         00014990 00000000! 
    2118 000149b0     0d5f  pjhwtag calla   change_anim1a
         000149c0 00000000! 
    2119                    
    2120 000149e0     0960          rets
    2121 000149f0           pjhwfail
    2122                    
    2123 000149f0     b7a0          move    *a13(ATTACH_PROC),a0,L
         00014a00     03e0  
    2124 00014a10     cb0c          jrnz    pjhwno_luck
    2125                    
    2126 00014a20     b5a0          move    *a13(OBJ_YPOSINT),a0
         00014a30     0130  
TMS340 COFF Macro Assembler Version 6.10     Mon Oct 30 16:55:16 2023
 Copyright (c) 1985-1991  Texas Instruments Incorporated 

meters, names, messages, and scores                                  PAGE   48

    2127 00014a40     b5a1          move    *a13(GROUND_Y),a1
         00014a50     0570  
    2128 00014a60     4820          cmp     a1,a0                   ;a0-a1
    2129 00014a70     c706          jrgt    pjhwno_luck
    2130                    
    2131                    
    2132 00014a80     09e0          movi    yok_3_head_held_stand_anim,a0
         00014a90 00000000! 
    2133 00014ab0     0d5f          calla   change_anim1a
         00014ac0 00000000! 
    2134                    
    2135 00014ae0           pjhwno_luck
    2136 00014ae0     0960          rets
    2137                    
    2138 00014af0           mode_chokehold  ;24
    2139 00014af0     0960          rets
    2140                    
    2141                    
    2142          0003a000  swykVEL equ     3a000h          ;38000h ;30000h
    2143          00031000  swykDVEL        equ     31000h          ;27978h ;21f0eh
    2144                    
    2145                    
    2146 00014b00            SUBR yok_velocity_table
    2147                    
    2148                    
    2149 00014b00 00000000          .long   0,      -swykVEL        ;0 UP
    2150                    
    2151 00014b40 00031000          .long   swykDVEL,       -swykDVEL       ;1 UP-RIGHT
    2152                    
    2153 00014b80 0003a000          .long   swykVEL,        0       ;2 RIGHT
    2154                    
    2155 00014bc0 00031000          .long   swykDVEL,       swykDVEL        ;3 DOWN-RIGHT
    2156                    
    2157 00014c00 00000000          .long   0,      swykVEL ;4 DOWN
    2158                    
    2159 00014c40 fffcf000          .long   -swykDVEL,      swykDVEL        ;5 DOWN-LEFT
    2160                    
    2161 00014c80 fffc6000          .long   -swykVEL,       0       ;6 LEFT
    2162                    
    2163 00014cc0 fffcf000          .long   -swykDVEL,      -swykDVEL       ;7 UP-LEFT
    2164                    
    2165                    
    2166                    
    2167 00014d00            SUBR yok_rotate_anims_table
    2168 00014d00 00000000!         .long   yok_stand2_anim         ;new = up right
    2169 00014d20 00000000!         .long   yok_2_to_4_turn_anim    ;    = down right
    2170 00014d40 00000000!         .long   yok_2_to_6_turn_anim    ;    = down left
    2171 00014d60 00000000!         .long   yok_2_to_8_turn_anim    ;    = up left
    2172                    
    2173 00014d80 00000000!         .long   yok_4_to_2_turn_anim    ;new = up right
    2174 00014da0 00000000!         .long   yok_stand4_anim         ;    = down right
    2175 00014dc0 00000000!         .long   yok_4_to_6_turn_anim    ;    = down left
    2176 00014de0 00000000!         .long   yok_4_to_8_turn_anim    ;    = up left
    2177                    
    2178 00014e00 00000000!         .long   yok_6_to_2_turn_anim    ;new = up right
TMS340 COFF Macro Assembler Version 6.10     Mon Oct 30 16:55:16 2023
 Copyright (c) 1985-1991  Texas Instruments Incorporated 

meters, names, messages, and scores                                  PAGE   49

    2179 00014e20 00000000!         .long   yok_6_to_4_turn_anim    ;    = down right
    2180 00014e40 00000000!         .long   yok_stand6_anim         ;    = down left
    2181 00014e60 00000000!         .long   yok_6_to_8_turn_anim    ;    = up left
    2182                    
    2183 00014e80 00000000!         .long   yok_8_to_2_turn_anim    ;new = up right
    2184 00014ea0 00000000!         .long   yok_8_to_4_turn_anim    ;    = down right
    2185 00014ec0 00000000!         .long   yok_8_to_6_turn_anim    ;    = down left
    2186 00014ee0 00000000!         .long   yok_stand8_anim         ;    = up left
    2187                    
    2188                    
    2189 00014f00            SUBR yok_leg_anims_table
    2190 00014f00 00000000!         .long   yok_walk1_f2_anim       ;1 (UP)
    2191 00014f20 00000000!         .long   yok_walk1_f2_anim       ;2 (UP_RIGHT)
    2192 00014f40 00000000!         .long   yok_walk1_f4_anim       ;3 (RIGHT)
    2193 00014f60 00000000!         .long   yok_walk1_f4_anim       ;4 (DOWN_RIGHT)
    2194 00014f80 00000000!         .long   yok_walk1_f4_anim       ;5 (DOWN)
    2195 00014fa0 00000000!         .long   yok_walk1_f4_anim       ;6 (DOWN_LEFT)
    2196 00014fc0 00000000!         .long   yok_walk1_f2_anim       ;7 (LEFT)
    2197 00014fe0 00000000!         .long   yok_walk1_f2_anim       ;8 (UP-LEFT)
    2198                    
    2199 00015000 00000000!         .long   yok_walk2_f2_anim       ;1 (UP)
    2200 00015020 00000000!         .long   yok_walk2_f2_anim       ;2 (UP_RIGHT)
    2201 00015040 00000000!         .long   yok_walk2_f2_anim       ;3 (RIGHT)
    2202 00015060 00000000!         .long   yok_walk2_f4_anim       ;4 (DOWN_RIGHT)
    2203 00015080 00000000!         .long   yok_walk8_f4_anim       ;5 (DOWN)
    2204 000150a0 00000000!         .long   yok_walk8_f4_anim       ;6 (DOWN_LEFT)
    2205 000150c0 00000000!         .long   yok_walk4_f2_anim       ;7 (LEFT)
    2206 000150e0 00000000!         .long   yok_walk4_f2_anim       ;8 (UP-LEFT)
    2207                    
    2208 00015100 00000000!         .long   yok_walk2_f2_anim       ;1 (UP)
    2209 00015120 00000000!         .long   yok_walk2_f2_anim       ;2 (UP_RIGHT)
    2210 00015140 00000000!         .long   yok_walk2_f2_anim       ;3 (RIGHT)
    2211 00015160 00000000!         .long   yok_walk4_f4_anim       ;4 (DOWN_RIGHT)
    2212 00015180 00000000!         .long   yok_walk4_f4_anim       ;5 (DOWN)
    2213 000151a0 00000000!         .long   yok_walk8_f4_anim       ;6 (DOWN_LEFT)
    2214 000151c0 00000000!         .long   yok_walk6_f2_anim       ;7 (LEFT)
    2215 000151e0 00000000!         .long   yok_walk6_f2_anim       ;8 (UP-LEFT)
    2216                    
    2217                    
    2218 00015200 00000000!         .long   yok_walk2_f2_anim       ;1 (UP)
    2219 00015220 00000000!         .long   yok_walk8_f2_anim       ;2 (UP_RIGHT)
    2220 00015240 00000000!         .long   yok_walk4_f4_anim       ;3 (RIGHT)
    2221 00015260 00000000!         .long   yok_walk4_f4_anim       ;4 (DOWN_RIGHT)
    2222 00015280 00000000!         .long   yok_walk2_f4_anim       ;5 (DOWN)
    2223 000152a0 00000000!         .long   yok_walk6_f4_anim       ;6 (DOWN_LEFT)
    2224 000152c0 00000000!         .long   yok_walk2_f2_anim       ;7 (LEFT)
    2225 000152e0 00000000!         .long   yok_walk6_f2_anim       ;8 (UP-LEFT)
    2226                    
    2227 00015300 00000000!         .long   yok_walk5_f2_anim       ;1 (UP)
    2228 00015320 00000000!         .long   yok_walk5_f2_anim       ;2 (UP_RIGHT)
    2229 00015340 00000000!         .long   yok_walk5_f4_anim       ;3 (RIGHT)
    2230 00015360 00000000!         .long   yok_walk5_f4_anim       ;4 (DOWN_RIGHT)
    2231 00015380 00000000!         .long   yok_walk5_f4_anim       ;5 (DOWN)
    2232 000153a0 00000000!         .long   yok_walk5_f4_anim       ;6 (DOWN_LEFT)
    2233 000153c0 00000000!         .long   yok_walk5_f2_anim       ;7 (LEFT)
TMS340 COFF Macro Assembler Version 6.10     Mon Oct 30 16:55:16 2023
 Copyright (c) 1985-1991  Texas Instruments Incorporated 

meters, names, messages, and scores                                  PAGE   50

    2234 000153e0 00000000!         .long   yok_walk5_f2_anim       ;8 (UP-LEFT)
    2235                    
    2236 00015400 00000000!         .long   yok_walk2_f2_anim       ;1 (UP)
    2237 00015420 00000000!         .long   yok_walk6_f2_anim       ;2 (UP_RIGHT)
    2238 00015440 00000000!         .long   yok_walk2_f2_anim       ;3 (RIGHT)
    2239 00015460 00000000!         .long   yok_walk6_f4_anim       ;4 (DOWN_RIGHT)
    2240 00015480 00000000!         .long   yok_walk2_f4_anim       ;5 (DOWN)
    2241 000154a0 00000000!         .long   yok_walk4_f4_anim       ;6 (DOWN_LEFT)
    2242 000154c0 00000000!         .long   yok_walk2_f2_anim       ;7 (LEFT)
    2243 000154e0 00000000!         .long   yok_walk8_f2_anim       ;8 (UP-LEFT)
    2244                    
    2245 00015500 00000000!         .long   yok_walk2_f2_anim       ;1 (UP)
    2246 00015520 00000000!         .long   yok_walk6_f2_anim       ;2 (UP_RIGHT)
    2247 00015540 00000000!         .long   yok_walk6_f2_anim       ;3 (RIGHT)
    2248 00015560 00000000!         .long   yok_walk8_f4_anim       ;4 (DOWN_RIGHT)
    2249 00015580 00000000!         .long   yok_walk4_f4_anim       ;5 (DOWN)
    2250 000155a0 00000000!         .long   yok_walk4_f4_anim       ;6 (DOWN_LEFT)
    2251 000155c0 00000000!         .long   yok_walk2_f2_anim       ;7 (LEFT)
    2252 000155e0 00000000!         .long   yok_walk2_f2_anim       ;8 (UP-LEFT)
    2253                    
    2254 00015600 00000000!         .long   yok_walk2_f2_anim       ;1 (UP)
    2255 00015620 00000000!         .long   yok_walk4_f2_anim       ;2 (UP_RIGHT)
    2256 00015640 00000000!         .long   yok_walk6_f2_anim       ;3 (RIGHT)
    2257 00015660 00000000!         .long   yok_walk8_f4_anim       ;4 (DOWN_RIGHT)
    2258 00015680 00000000!         .long   yok_walk6_f4_anim       ;5 (DOWN)
    2259 000156a0 00000000!         .long   yok_walk2_f4_anim       ;6 (DOWN_LEFT)
    2260 000156c0 00000000!         .long   yok_walk2_f2_anim       ;7 (LEFT)
    2261 000156e0 00000000!         .long   yok_walk2_f2_anim       ;8 (UP-LEFT)
    2262                    
    2263                    
    2264 00015700            SUBR yok_torso_anims_table
    2265 00015700 00000000!         .long   yok_torso2_anim         ;new = up right
    2266 00015720 00000000!         .long   yok_2_to_4_turn2_anim   ;    = down right
    2267 00015740 00000000!         .long   yok_2_to_6_turn2_anim   ;    = down left
    2268 00015760 00000000!         .long   yok_2_to_8_turn2_anim   ;    = up left
    2269                    
    2270 00015780 00000000!         .long   yok_4_to_2_turn2_anim   ;new = up right
    2271 000157a0 00000000!         .long   yok_torso4_anim         ;    = down right
    2272 000157c0 00000000!         .long   yok_4_to_6_turn2_anim   ;    = down left
    2273 000157e0 00000000!         .long   yok_4_to_8_turn2_anim   ;    = up left
    2274                    
    2275 00015800 00000000!         .long   yok_6_to_2_turn2_anim   ;new = up right
    2276 00015820 00000000!         .long   yok_6_to_4_turn2_anim   ;    = down right
    2277 00015840 00000000!         .long   yok_torso6_anim         ;    = down left
    2278 00015860 00000000!         .long   yok_6_to_8_turn2_anim   ;    = up left
    2279                    
    2280 00015880 00000000!         .long   yok_8_to_2_turn2_anim   ;new = up right
    2281 000158a0 00000000!         .long   yok_8_to_4_turn2_anim   ;    = down right
    2282 000158c0 00000000!         .long   yok_8_to_6_turn2_anim   ;    = down left
    2283 000158e0 00000000!         .long   yok_torso8_anim         ;    = up left
    2284                    
    2285                    
    2286                    
    2287                            .end

 No Errors,  No Warnings
